

Microchip Technology PIC18 LITE Macro Assembler V1.35 build -356382666 
                                                                                               Sun Apr 03 19:28:04 2016

Microchip Technology Omniscient Code Generator v1.35 (Free mode) build 201507080246
     1                           	processor	18F4550
     2                           	fnconf	rparam,??,?,0
     3                           	opt	pw 120
     4                           	opt	lm
     5                           	psect	idataCOMRAM,global,class=CODE,delta=1
     6                           	psect	cinit,global,reloc=2,class=CODE,delta=1
     7                           	psect	bssCOMRAM,global,class=COMRAM,space=1,delta=1
     8                           	psect	dataCOMRAM,global,class=COMRAM,space=1,delta=1
     9                           	psect	bssBANK0,global,class=BANK0,space=1,delta=1
    10                           	psect	bssBIGRAM,global,class=BIGRAM,space=1,delta=1
    11                           	psect	cstackBANK0,global,class=BANK0,space=1,delta=1
    12                           	psect	cstackCOMRAM,global,class=COMRAM,space=1,delta=1
    13                           	psect	text0,global,reloc=2,class=CODE,delta=1
    14                           	psect	text1,global,reloc=2,class=CODE,delta=1
    15                           	psect	text2,global,reloc=2,class=CODE,delta=1
    16                           	psect	text3,global,reloc=2,class=CODE,delta=1
    17                           	psect	text4,global,reloc=2,class=CODE,delta=1
    18                           	psect	text5,global,reloc=2,class=CODE,delta=1
    19                           	psect	text6,global,reloc=2,class=CODE,delta=1
    20                           	psect	text7,global,reloc=2,class=CODE,delta=1
    21                           	psect	text8,global,reloc=2,class=CODE,delta=1
    22                           	psect	text9,global,reloc=2,class=CODE,delta=1
    23                           	psect	text10,global,reloc=2,class=CODE,delta=1
    24                           	psect	text11,global,reloc=2,class=CODE,delta=1
    25                           	psect	text12,global,reloc=2,class=CODE,delta=1
    26                           	psect	text13,global,reloc=2,class=CODE,delta=1
    27                           	psect	text14,global,reloc=2,class=CODE,delta=1
    28                           	psect	intcodelo,global,reloc=2,class=CODE,delta=1
    29                           	psect	text16,global,reloc=2,class=CODE,delta=1
    30                           	psect	text17,global,reloc=2,class=CODE,delta=1
    31                           	psect	intcode,global,reloc=2,class=CODE,delta=1
    32                           	psect	intcode_body,global,reloc=2,class=CODE,delta=1
    33                           	psect	text19,global,reloc=2,class=CODE,delta=1
    34                           	psect	text20,global,reloc=2,class=CODE,delta=1
    35                           	psect	intsave_regs,global,class=BIGRAM,space=1,delta=1
    36                           	psect	text21,global,reloc=2,class=CODE,delta=1
    37                           	psect	rparam,global,class=COMRAM,space=1,delta=1
    38                           	psect	temp,global,ovrld,common,class=COMRAM,space=1,delta=1
    39  0000                     
    40                           	psect	idataCOMRAM
    41  001370                     __pidataCOMRAM:
    42                           	opt stack 0
    43                           
    44                           ;initializer for Structure@s_BSRBackup
    45  001370  FF                 	db	255
    46                           
    47                           ;initializer for Structure@s_STATUSBackup
    48  001371  FF                 	db	255
    49                           
    50                           ;initializer for Structure@s_WREGBackup
    51  001372  FF                 	db	255
    52                           
    53                           ;initializer for _CN1
    54  001373  08                 	db	8
    55                           
    56                           ;initializer for _CN2
    57  001374  08                 	db	8
    58                           
    59                           ;initializer for _actualPosition
    60  001375  0A                 	db	10
    61                           
    62                           ;initializer for _dutyCycle1
    63  001376  01                 	db	1
    64                           
    65                           ;initializer for _dutyCycle2
    66  001377  02                 	db	2
    67                           
    68                           ;initializer for _dutyCycle3
    69  001378  03                 	db	3
    70                           
    71                           ;initializer for _dutyCycle4
    72  001379  04                 	db	4
    73                           
    74                           ;initializer for _dutyCycle5
    75  00137A  05                 	db	5
    76                           
    77                           ;initializer for _dutyCycle6
    78  00137B  06                 	db	6
    79                           
    80                           ;initializer for _minPrior
    81  00137C  FF                 	db	255
    82                           
    83                           ;initializer for _s_BSRBackup
    84  00137D  FF                 	db	255
    85                           
    86                           ;initializer for _s_STATUSBackup
    87  00137E  FF                 	db	255
    88                           
    89                           ;initializer for _s_WREGBackup
    90  00137F  FF                 	db	255
    91                           
    92                           ;initializer for _schedulerStatus
    93  001380  01                 	db	1
    94  0000                     _TOS	set	4093
    95  0000                     _ADCON1bits	set	4033
    96  0000                     _BSR	set	4064
    97  0000                     _INTCON2bits	set	4081
    98  0000                     _INTCON3bits	set	4080
    99  0000                     _INTCONbits	set	4082
   100  0000                     _LATB	set	3978
   101  0000                     _OSCCONbits	set	4051
   102  0000                     _PIE1bits	set	3997
   103  0000                     _PIR1bits	set	3998
   104  0000                     _PORTBbits	set	3969
   105  0000                     _RCONbits	set	4048
   106  0000                     _STATUS	set	4056
   107  0000                     _STKPTR	set	4092
   108  0000                     _T1CON	set	4045
   109  0000                     _T1CONbits	set	4045
   110  0000                     _TMR1H	set	4047
   111  0000                     _TMR1L	set	4046
   112  0000                     _TOSH	set	4094
   113  0000                     _TOSL	set	4093
   114  0000                     _TOSU	set	4095
   115  0000                     _TRISB	set	3987
   116  0000                     _TRISBbits	set	3987
   117  0000                     _WREG	set	4072
   118  0000                     _GIE	set	32663
   119  0000                     _INT1IE	set	32643
   120  0000                     _INT1IF	set	32640
   121  0000                     _INT2IE	set	32644
   122  0000                     _INT2IF	set	32641
   123  0000                     _LATB3	set	31827
   124  0000                     _TMR1IE	set	31976
   125  0000                     _TMR1IF	set	31984
   126                           
   127                           ; #config settings
   128  0000                     
   129                           	psect	cinit
   130  00126E                     __pcinit:
   131                           	opt stack 0
   132  00126E                     start_initialization:
   133                           	opt stack 0
   134  00126E                     __initialization:
   135                           	opt stack 0
   136                           
   137                           ; Clear objects allocated to BIGRAM (264 bytes)
   138  00126E  EE00  F0D4         	lfsr	0,__pbssBIGRAM
   139  001272  EE11 F008          	lfsr	1,264
   140  001276                     clear_0:
   141  001276  6AEE               	clrf	postinc0,c
   142  001278  50E5               	movf	postdec1,w,c
   143  00127A  50E1               	movf	fsr1l,w,c
   144  00127C  E1FC               	bnz	clear_0
   145  00127E  50E2               	movf	fsr1h,w,c
   146  001280  E1FA               	bnz	clear_0
   147                           
   148                           ; Clear objects allocated to BANK0 (92 bytes)
   149  001282  EE00  F060         	lfsr	0,__pbssBANK0
   150  001286  0E5C               	movlw	92
   151  001288                     clear_1:
   152  001288  6AEE               	clrf	postinc0,c
   153  00128A  06E8               	decf	wreg,f,c
   154  00128C  E1FD               	bnz	clear_1
   155                           
   156                           ; Clear objects allocated to COMRAM (26 bytes)
   157  00128E  EE00  F001         	lfsr	0,__pbssCOMRAM
   158  001292  0E1A               	movlw	26
   159  001294                     clear_2:
   160  001294  6AEE               	clrf	postinc0,c
   161  001296  06E8               	decf	wreg,f,c
   162  001298  E1FD               	bnz	clear_2
   163                           
   164                           ; Initialize objects allocated to COMRAM (17 bytes)
   165                           ; load TBLPTR registers with __pidataCOMRAM
   166  00129A  0E70               	movlw	low __pidataCOMRAM
   167  00129C  6EF6               	movwf	tblptrl,c
   168  00129E  0E13               	movlw	high __pidataCOMRAM
   169  0012A0  6EF7               	movwf	tblptrh,c
   170  0012A2  0E00               	movlw	low (__pidataCOMRAM shr (0+16))
   171  0012A4  6EF8               	movwf	tblptru,c
   172  0012A6  EE00  F035         	lfsr	0,__pdataCOMRAM
   173  0012AA  EE10 F011          	lfsr	1,17
   174  0012AE                     copy_data0:
   175  0012AE  0009               	tblrd		*+
   176  0012B0  CFF5 FFEE          	movff	tablat,postinc0
   177  0012B4  50E5               	movf	postdec1,w,c
   178  0012B6  50E1               	movf	fsr1l,w,c
   179  0012B8  E1FA               	bnz	copy_data0
   180  0012BA                     end_of_initialization:
   181                           	opt stack 0
   182  0012BA                     __end_of__initialization:
   183                           	opt stack 0
   184  0012BA  9046               	bcf	int$flags,0,c	;clear compiler interrupt flag (level 1)
   185  0012BC  9246               	bcf	int$flags,1,c	;clear compiler interrupt flag (level 2)
   186  0012BE  0100               	movlb	0
   187  0012C0  EF62  F009         	goto	_main	;jump to C main() function
   188                           tblptru	equ	0xFF8
   189                           tblptrh	equ	0xFF7
   190                           tblptrl	equ	0xFF6
   191                           tablat	equ	0xFF5
   192                           postinc0	equ	0xFEE
   193                           wreg	equ	0xFE8
   194                           postdec1	equ	0xFE5
   195                           fsr1h	equ	0xFE2
   196                           fsr1l	equ	0xFE1
   197                           
   198                           	psect	bssCOMRAM
   199  000001                     __pbssCOMRAM:
   200                           	opt stack 0
   201  000001                     _r_pointer:
   202                           	opt stack 0
   203  000001                     	ds	2
   204  000003                     	ds	2
   205  000005                     _cont:
   206                           	opt stack 0
   207  000005                     	ds	1
   208  000006                     _i:
   209                           	opt stack 0
   210  000006                     	ds	1
   211  000007                     	ds	1
   212  000008                     _i_dr:
   213                           	opt stack 0
   214  000008                     	ds	1
   215  000009                     _i_dw:
   216                           	opt stack 0
   217  000009                     	ds	1
   218  00000A                     _i_mic:
   219                           	opt stack 0
   220  00000A                     	ds	1
   221  00000B                     _i_rmb:
   222                           	opt stack 0
   223  00000B                     	ds	1
   224  00000C                     _i_wmb:
   225                           	opt stack 0
   226  00000C                     	ds	1
   227  00000D                     _index:
   228                           	opt stack 0
   229  00000D                     	ds	1
   230  00000E                     _index_dr:
   231                           	opt stack 0
   232  00000E                     	ds	1
   233  00000F                     _index_dw:
   234                           	opt stack 0
   235  00000F                     	ds	1
   236  000010                     _index_mic:
   237                           	opt stack 0
   238  000010                     	ds	1
   239  000011                     _index_rmb:
   240                           	opt stack 0
   241  000011                     	ds	1
   242  000012                     _index_wmb:
   243                           	opt stack 0
   244  000012                     	ds	1
   245  000013                     	ds	1
   246  000014                     	ds	1
   247  000015                     	ds	1
   248  000016                     _taskPosition:
   249                           	opt stack 0
   250  000016                     	ds	1
   251  000017                     _valor1:
   252                           	opt stack 0
   253  000017                     	ds	1
   254  000018                     	ds	1
   255  000019                     _y:
   256                           	opt stack 0
   257  000019                     	ds	2
   258                           tblptru	equ	0xFF8
   259                           tblptrh	equ	0xFF7
   260                           tblptrl	equ	0xFF6
   261                           tablat	equ	0xFF5
   262                           postinc0	equ	0xFEE
   263                           wreg	equ	0xFE8
   264                           postdec1	equ	0xFE5
   265                           fsr1h	equ	0xFE2
   266                           fsr1l	equ	0xFE1
   267                           
   268                           	psect	dataCOMRAM
   269  000035                     __pdataCOMRAM:
   270                           	opt stack 0
   271  000035                     Structure@s_BSRBackup:
   272                           	opt stack 0
   273  000035                     	ds	1
   274  000036                     Structure@s_STATUSBackup:
   275                           	opt stack 0
   276  000036                     	ds	1
   277  000037                     Structure@s_WREGBackup:
   278                           	opt stack 0
   279  000037                     	ds	1
   280  000038                     _CN1:
   281                           	opt stack 0
   282  000038                     	ds	1
   283  000039                     	ds	1
   284  00003A                     _actualPosition:
   285                           	opt stack 0
   286  00003A                     	ds	1
   287  00003B                     _dutyCycle1:
   288                           	opt stack 0
   289  00003B                     	ds	1
   290  00003C                     	ds	1
   291  00003D                     	ds	1
   292  00003E                     	ds	1
   293  00003F                     	ds	1
   294  000040                     	ds	1
   295  000041                     _minPrior:
   296                           	opt stack 0
   297  000041                     	ds	1
   298  000042                     	ds	1
   299  000043                     	ds	1
   300  000044                     	ds	1
   301  000045                     _schedulerStatus:
   302                           	opt stack 0
   303  000045                     	ds	1
   304                           tblptru	equ	0xFF8
   305                           tblptrh	equ	0xFF7
   306                           tblptrl	equ	0xFF6
   307                           tablat	equ	0xFF5
   308                           postinc0	equ	0xFEE
   309                           wreg	equ	0xFE8
   310                           postdec1	equ	0xFE5
   311                           fsr1h	equ	0xFE2
   312                           fsr1l	equ	0xFE1
   313                           
   314                           	psect	bssBANK0
   315  000060                     __pbssBANK0:
   316                           	opt stack 0
   317  000060                     _MailBoxArray:
   318                           	opt stack 0
   319  000060                     	ds	88
   320  0000B8                     _x:
   321                           	opt stack 0
   322  0000B8                     	ds	4
   323                           tblptru	equ	0xFF8
   324                           tblptrh	equ	0xFF7
   325                           tblptrl	equ	0xFF6
   326                           tablat	equ	0xFF5
   327                           postinc0	equ	0xFEE
   328                           wreg	equ	0xFE8
   329                           postdec1	equ	0xFE5
   330                           fsr1h	equ	0xFE2
   331                           fsr1l	equ	0xFE1
   332                           
   333                           	psect	bssBIGRAM
   334  0000D4                     __pbssBIGRAM:
   335                           	opt stack 0
   336  0000D4                     _TaskArray:
   337                           	opt stack 0
   338  0000D4                     	ds	264
   339                           tblptru	equ	0xFF8
   340                           tblptrh	equ	0xFF7
   341                           tblptrl	equ	0xFF6
   342                           tablat	equ	0xFF5
   343                           postinc0	equ	0xFEE
   344                           wreg	equ	0xFE8
   345                           postdec1	equ	0xFE5
   346                           fsr1h	equ	0xFE2
   347                           fsr1l	equ	0xFE1
   348                           
   349                           	psect	cstackBANK0
   350  0000BC                     __pcstackBANK0:
   351                           	opt stack 0
   352  0000BC                     ??_High_Priority_Interrupt:
   353                           
   354                           ; 0 bytes @ 0x0
   355  0000BC                     	ds	14
   356  0000CA                     mailBox_init_conection@reader:
   357                           	opt stack 0
   358  0000CA                     WritingMailBox@reader:
   359                           	opt stack 0
   360  0000CA                     ReadingMailBox@r:
   361                           	opt stack 0
   362  0000CA                     vTaskDelay@delayms:
   363                           	opt stack 0
   364  0000CA                     xTaskCreate@pvTaskCode:
   365                           	opt stack 0
   366                           
   367                           ; 4 bytes @ 0xE
   368  0000CA                     	ds	1
   369  0000CB                     ??_WritingMailBox:
   370                           
   371                           ; 0 bytes @ 0xF
   372  0000CB                     	ds	1
   373  0000CC                     ??_ReadingMailBox:
   374                           
   375                           ; 0 bytes @ 0x10
   376  0000CC                     	ds	2
   377  0000CE                     WritingMailBox@data:
   378                           	opt stack 0
   379  0000CE                     xTaskCreate@Id:
   380                           	opt stack 0
   381                           
   382                           ; 1 bytes @ 0x12
   383  0000CE                     	ds	1
   384  0000CF                     xTaskCreate@Prior:
   385                           	opt stack 0
   386                           
   387                           ; 1 bytes @ 0x13
   388  0000CF                     	ds	2
   389  0000D1                     ReadingMailBox@writter:
   390                           	opt stack 0
   391                           
   392                           ; 1 bytes @ 0x15
   393  0000D1                     	ds	1
   394  0000D2                     ??_PWM1:
   395                           
   396                           ; 0 bytes @ 0x16
   397  0000D2                     	ds	2
   398                           tblptru	equ	0xFF8
   399                           tblptrh	equ	0xFF7
   400                           tblptrl	equ	0xFF6
   401                           tablat	equ	0xFF5
   402                           postinc0	equ	0xFEE
   403                           wreg	equ	0xFE8
   404                           postdec1	equ	0xFE5
   405                           fsr1h	equ	0xFE2
   406                           fsr1l	equ	0xFE1
   407                           
   408                           	psect	cstackCOMRAM
   409  00001B                     __pcstackCOMRAM:
   410                           	opt stack 0
   411  00001B                     xInterruptTaskCreate@pvTaskCode:
   412                           	opt stack 0
   413                           
   414                           ; 4 bytes @ 0x0
   415  00001B                     	ds	4
   416  00001F                     xInterruptTaskCreate@Id:
   417                           	opt stack 0
   418                           
   419                           ; 1 bytes @ 0x4
   420  00001F                     	ds	1
   421  000020                     xInterruptTaskCreate@Prior:
   422                           	opt stack 0
   423                           
   424                           ; 1 bytes @ 0x5
   425  000020                     	ds	1
   426  000021                     ??_Low_Priority_Interrupt:
   427                           
   428                           ; 0 bytes @ 0x6
   429  000021                     	ds	17
   430  000032                     
   431                           ; 0 bytes @ 0x17
   432  000032                     	ds	2
   433  000034                     ??_OSRun:
   434  000034                     mailBox_init_conection@writer:
   435                           	opt stack 0
   436  000034                     mailBoxHasData@mailboxIndex:
   437                           	opt stack 0
   438                           
   439                           ; 1 bytes @ 0x19
   440  000034                     	ds	1
   441  000035                     tblptru	equ	0xFF8
   442                           tblptrh	equ	0xFF7
   443                           tblptrl	equ	0xFF6
   444                           tablat	equ	0xFF5
   445                           postinc0	equ	0xFEE
   446                           wreg	equ	0xFE8
   447                           postdec1	equ	0xFE5
   448                           fsr1h	equ	0xFE2
   449                           fsr1l	equ	0xFE1
   450                           
   451                           ; 0 bytes @ 0x1A
   452 ;;
   453 ;;Main: autosize = 0, tempsize = 0, incstack = 0, save=0
   454 ;;
   455 ;; *************** function _main *****************
   456 ;; Defined at:
   457 ;;		line 183 in file "main.c"
   458 ;; Parameters:    Size  Location     Type
   459 ;;		None
   460 ;; Auto vars:     Size  Location     Type
   461 ;;		None
   462 ;; Return value:  Size  Location     Type
   463 ;;		None               void
   464 ;; Registers used:
   465 ;;		wreg, fsr1l, fsr1h, fsr2l, fsr2h, status,2, status,0, prodl, prodh, cstack
   466 ;; Tracked objects:
   467 ;;		On entry : 0/0
   468 ;;		On exit  : 0/0
   469 ;;		Unchanged: 0/0
   470 ;; Data sizes:     COMRAM   BANK0   BANK1   BANK2   BANK3   BANK4   BANK5   BANK6   BANK7
   471 ;;      Params:         0       0       0       0       0       0       0       0       0
   472 ;;      Locals:         0       0       0       0       0       0       0       0       0
   473 ;;      Temps:          0       0       0       0       0       0       0       0       0
   474 ;;      Totals:         0       0       0       0       0       0       0       0       0
   475 ;;Total ram usage:        0 bytes
   476 ;; Hardware stack levels required when called:    7
   477 ;; This function calls:
   478 ;;		_OSInit
   479 ;;		_PWM1
   480 ;;		_RX1
   481 ;;		_extInt
   482 ;;		_ports_Init
   483 ;;		_xTaskCreate
   484 ;; This function is called by:
   485 ;;		Startup code after reset
   486 ;; This function uses a non-reentrant model
   487 ;;
   488                           
   489                           	psect	text0
   490  0012C4                     __ptext0:
   491                           	opt stack 0
   492  0012C4                     _main:
   493                           	opt stack 24
   494                           
   495                           ;incstack = 0
   496  0012C4  F000               	nop		;# 
   497                           
   498                           ;main.c: 185: OSInit();
   499  0012C6  ECF0  F005         	call	_OSInit	;wreg free
   500                           
   501                           ;main.c: 186: ports_Init();
   502  0012CA  ECA3  F009         	call	_ports_Init	;wreg free
   503                           
   504                           ;main.c: 187: extInt();
   505  0012CE  ECAF  F009         	call	_extInt	;wreg free
   506                           
   507                           ;main.c: 188: RCONbits.IPEN=1;
   508  0012D2  8ED0               	bsf	4048,7,c	;volatile
   509                           
   510                           ;main.c: 189: INTCONbits.PEIE_GIEL=1;
   511  0012D4  8CF2               	bsf	intcon,6,c	;volatile
   512                           
   513                           ;main.c: 190: INT1IF=0;
   514  0012D6  90F0               	bcf	intcon3,0,c	;volatile
   515                           
   516                           ;main.c: 192: GIE=1;
   517  0012D8  8EF2               	bsf	intcon,7,c	;volatile
   518                           
   519                           ;main.c: 193: xTaskCreate(PWM1,0,1);
   520  0012DA  0E92               	movlw	low _PWM1
   521  0012DC  0100               	movlb	0	; () banked
   522  0012DE  6FCA               	movwf	xTaskCreate@pvTaskCode& (0+255),b
   523  0012E0  0E11               	movlw	high _PWM1
   524  0012E2  6FCB               	movwf	(xTaskCreate@pvTaskCode+1)& (0+255),b
   525  0012E4  0E00               	movlw	low (_PWM1 shr (0+16))
   526  0012E6  6FCC               	movwf	(xTaskCreate@pvTaskCode+2)& (0+255),b
   527  0012E8  0E00               	movlw	high (_PWM1 shr (0+16))
   528  0012EA  6FCD               	movwf	(xTaskCreate@pvTaskCode+3)& (0+255),b
   529  0012EC  0E00               	movlw	0
   530  0012EE  0100               	movlb	0	; () banked
   531  0012F0  6FCE               	movwf	xTaskCreate@Id& (0+255),b
   532  0012F2  0E01               	movlw	1
   533  0012F4  0100               	movlb	0	; () banked
   534  0012F6  6FCF               	movwf	xTaskCreate@Prior& (0+255),b
   535  0012F8  ECC0  F004         	call	_xTaskCreate	;wreg free
   536  0012FC                     l123:
   537  0012FC  F000               	nop		;# 
   538                           
   539                           ;main.c: 199: }while(1);
   540  0012FE  D7FE               	goto	l123
   541  001300                     __end_of_main:
   542                           	opt stack 0
   543                           tblptru	equ	0xFF8
   544                           tblptrh	equ	0xFF7
   545                           tblptrl	equ	0xFF6
   546                           tablat	equ	0xFF5
   547                           intcon	equ	0xFF2
   548                           intcon3	equ	0xFF0
   549                           postinc0	equ	0xFEE
   550                           wreg	equ	0xFE8
   551                           postdec1	equ	0xFE5
   552                           fsr1h	equ	0xFE2
   553                           fsr1l	equ	0xFE1
   554                           
   555 ;; *************** function _xTaskCreate *****************
   556 ;; Defined at:
   557 ;;		line 271 in file "Structure.c"
   558 ;; Parameters:    Size  Location     Type
   559 ;;  pvTaskCode      4   14[BANK0 ] unsigned long 
   560 ;;  Id              1   18[BANK0 ] unsigned char 
   561 ;;  Prior           1   19[BANK0 ] unsigned char 
   562 ;; Auto vars:     Size  Location     Type
   563 ;;		None
   564 ;; Return value:  Size  Location     Type
   565 ;;		None               void
   566 ;; Registers used:
   567 ;;		wreg, fsr2l, fsr2h, status,2, status,0, prodl, prodh, cstack
   568 ;; Tracked objects:
   569 ;;		On entry : 0/0
   570 ;;		On exit  : 0/0
   571 ;;		Unchanged: 0/0
   572 ;; Data sizes:     COMRAM   BANK0   BANK1   BANK2   BANK3   BANK4   BANK5   BANK6   BANK7
   573 ;;      Params:         0       6       0       0       0       0       0       0       0
   574 ;;      Locals:         0       0       0       0       0       0       0       0       0
   575 ;;      Temps:          0       0       0       0       0       0       0       0       0
   576 ;;      Totals:         0       6       0       0       0       0       0       0       0
   577 ;;Total ram usage:        6 bytes
   578 ;; Hardware stack levels used:    1
   579 ;; Hardware stack levels required when called:    5
   580 ;; This function calls:
   581 ;;		_OSRun
   582 ;; This function is called by:
   583 ;;		_main
   584 ;; This function uses a non-reentrant model
   585 ;;
   586                           
   587                           	psect	text1
   588  000980                     __ptext1:
   589                           	opt stack 0
   590  000980                     _xTaskCreate:
   591                           	opt stack 25
   592                           
   593                           ;Structure.c: 272: INTCONbits.PEIE_GIEL=0;
   594                           
   595                           ;incstack = 0
   596  000980  9CF2               	bcf	intcon,6,c	;volatile
   597                           
   598                           ;Structure.c: 273: GIE=0;
   599  000982  9EF2               	bcf	intcon,7,c	;volatile
   600                           
   601                           ;Structure.c: 275: TaskArray[actualPosition].currentAdd3=TOSU;
   602  000984  503A               	movf	_actualPosition,w,c
   603  000986  0D18               	mullw	24
   604  000988  0E08               	movlw	8
   605  00098A  26F3               	addwf	prodl,f,c
   606  00098C  0E00               	movlw	0
   607  00098E  22F4               	addwfc	prodh,f,c
   608  000990  0ED4               	movlw	low _TaskArray
   609  000992  24F3               	addwf	prodl,w,c
   610  000994  6ED9               	movwf	fsr2l,c
   611  000996  0E00               	movlw	high _TaskArray
   612  000998  20F4               	addwfc	prodh,w,c
   613  00099A  6EDA               	movwf	fsr2h,c
   614  00099C  CFFF FFDF          	movff	tosu,indf2	;volatile
   615                           
   616                           ;Structure.c: 276: TaskArray[actualPosition].currentAdd2=TOSH;
   617  0009A0  503A               	movf	_actualPosition,w,c
   618  0009A2  0D18               	mullw	24
   619  0009A4  0E07               	movlw	7
   620  0009A6  26F3               	addwf	prodl,f,c
   621  0009A8  0E00               	movlw	0
   622  0009AA  22F4               	addwfc	prodh,f,c
   623  0009AC  0ED4               	movlw	low _TaskArray
   624  0009AE  24F3               	addwf	prodl,w,c
   625  0009B0  6ED9               	movwf	fsr2l,c
   626  0009B2  0E00               	movlw	high _TaskArray
   627  0009B4  20F4               	addwfc	prodh,w,c
   628  0009B6  6EDA               	movwf	fsr2h,c
   629  0009B8  CFFE FFDF          	movff	tosh,indf2	;volatile
   630                           
   631                           ;Structure.c: 277: TaskArray[actualPosition].currentAdd1=TOSL;
   632  0009BC  503A               	movf	_actualPosition,w,c
   633  0009BE  0D18               	mullw	24
   634  0009C0  0E06               	movlw	6
   635  0009C2  26F3               	addwf	prodl,f,c
   636  0009C4  0E00               	movlw	0
   637  0009C6  22F4               	addwfc	prodh,f,c
   638  0009C8  0ED4               	movlw	low _TaskArray
   639  0009CA  24F3               	addwf	prodl,w,c
   640  0009CC  6ED9               	movwf	fsr2l,c
   641  0009CE  0E00               	movlw	high _TaskArray
   642  0009D0  20F4               	addwfc	prodh,w,c
   643  0009D2  6EDA               	movwf	fsr2h,c
   644  0009D4  CFFD FFDF          	movff	tosl,indf2	;volatile
   645                           
   646                           ;Structure.c: 279: taskPosition=Id;
   647  0009D8  C0CE  F016         	movff	xTaskCreate@Id,_taskPosition
   648                           
   649                           ;Structure.c: 280: TaskArray[taskPosition].Id=Id;
   650  0009DC  5016               	movf	_taskPosition,w,c
   651  0009DE  0D18               	mullw	24
   652  0009E0  0E04               	movlw	4
   653  0009E2  26F3               	addwf	prodl,f,c
   654  0009E4  0E00               	movlw	0
   655  0009E6  22F4               	addwfc	prodh,f,c
   656  0009E8  0ED4               	movlw	low _TaskArray
   657  0009EA  24F3               	addwf	prodl,w,c
   658  0009EC  6ED9               	movwf	fsr2l,c
   659  0009EE  0E00               	movlw	high _TaskArray
   660  0009F0  20F4               	addwfc	prodh,w,c
   661  0009F2  6EDA               	movwf	fsr2h,c
   662  0009F4  C0CE  FFDF         	movff	xTaskCreate@Id,indf2
   663                           
   664                           ;Structure.c: 281: TaskArray[taskPosition].state=2;
   665  0009F8  5016               	movf	_taskPosition,w,c
   666  0009FA  0D18               	mullw	24
   667  0009FC  0E03               	movlw	3
   668  0009FE  26F3               	addwf	prodl,f,c
   669  000A00  0E00               	movlw	0
   670  000A02  22F4               	addwfc	prodh,f,c
   671  000A04  0ED4               	movlw	low _TaskArray
   672  000A06  24F3               	addwf	prodl,w,c
   673  000A08  6ED9               	movwf	fsr2l,c
   674  000A0A  0E00               	movlw	high _TaskArray
   675  000A0C  20F4               	addwfc	prodh,w,c
   676  000A0E  6EDA               	movwf	fsr2h,c
   677  000A10  0E02               	movlw	2
   678  000A12  6EDF               	movwf	indf2,c
   679                           
   680                           ;Structure.c: 282: TaskArray[taskPosition].Add3=(pvTaskCode & 0x00ff0000) >> 16;
   681  000A14  5016               	movf	_taskPosition,w,c
   682  000A16  0D18               	mullw	24
   683  000A18  0E02               	movlw	2
   684  000A1A  26F3               	addwf	prodl,f,c
   685  000A1C  0E00               	movlw	0
   686  000A1E  22F4               	addwfc	prodh,f,c
   687  000A20  0ED4               	movlw	low _TaskArray
   688  000A22  24F3               	addwf	prodl,w,c
   689  000A24  6ED9               	movwf	fsr2l,c
   690  000A26  0E00               	movlw	high _TaskArray
   691  000A28  20F4               	addwfc	prodh,w,c
   692  000A2A  6EDA               	movwf	fsr2h,c
   693  000A2C  C0CC  FFDF         	movff	xTaskCreate@pvTaskCode+2,indf2
   694                           
   695                           ;Structure.c: 283: TaskArray[taskPosition].Add2=(pvTaskCode & 0x0000ff00) >> 8;
   696  000A30  5016               	movf	_taskPosition,w,c
   697  000A32  0D18               	mullw	24
   698  000A34  0E01               	movlw	1
   699  000A36  26F3               	addwf	prodl,f,c
   700  000A38  0E00               	movlw	0
   701  000A3A  22F4               	addwfc	prodh,f,c
   702  000A3C  0ED4               	movlw	low _TaskArray
   703  000A3E  24F3               	addwf	prodl,w,c
   704  000A40  6ED9               	movwf	fsr2l,c
   705  000A42  0E00               	movlw	high _TaskArray
   706  000A44  20F4               	addwfc	prodh,w,c
   707  000A46  6EDA               	movwf	fsr2h,c
   708  000A48  C0CB  FFDF         	movff	xTaskCreate@pvTaskCode+1,indf2
   709                           
   710                           ;Structure.c: 284: TaskArray[taskPosition].Add1=(pvTaskCode & 0x000000ff);
   711  000A4C  5016               	movf	_taskPosition,w,c
   712  000A4E  0D18               	mullw	24
   713  000A50  0ED4               	movlw	low _TaskArray
   714  000A52  24F3               	addwf	prodl,w,c
   715  000A54  6ED9               	movwf	fsr2l,c
   716  000A56  0E00               	movlw	high _TaskArray
   717  000A58  20F4               	addwfc	prodh,w,c
   718  000A5A  6EDA               	movwf	fsr2h,c
   719  000A5C  C0CA  FFDF         	movff	xTaskCreate@pvTaskCode,indf2
   720                           
   721                           ;Structure.c: 285: TaskArray[taskPosition].currentAdd3=(pvTaskCode & 0x00ff0000) >> 16;
   722  000A60  5016               	movf	_taskPosition,w,c
   723  000A62  0D18               	mullw	24
   724  000A64  0E08               	movlw	8
   725  000A66  26F3               	addwf	prodl,f,c
   726  000A68  0E00               	movlw	0
   727  000A6A  22F4               	addwfc	prodh,f,c
   728  000A6C  0ED4               	movlw	low _TaskArray
   729  000A6E  24F3               	addwf	prodl,w,c
   730  000A70  6ED9               	movwf	fsr2l,c
   731  000A72  0E00               	movlw	high _TaskArray
   732  000A74  20F4               	addwfc	prodh,w,c
   733  000A76  6EDA               	movwf	fsr2h,c
   734  000A78  C0CC  FFDF         	movff	xTaskCreate@pvTaskCode+2,indf2
   735                           
   736                           ;Structure.c: 286: TaskArray[taskPosition].currentAdd2=(pvTaskCode & 0x0000ff00) >> 8;
   737  000A7C  5016               	movf	_taskPosition,w,c
   738  000A7E  0D18               	mullw	24
   739  000A80  0E07               	movlw	7
   740  000A82  26F3               	addwf	prodl,f,c
   741  000A84  0E00               	movlw	0
   742  000A86  22F4               	addwfc	prodh,f,c
   743  000A88  0ED4               	movlw	low _TaskArray
   744  000A8A  24F3               	addwf	prodl,w,c
   745  000A8C  6ED9               	movwf	fsr2l,c
   746  000A8E  0E00               	movlw	high _TaskArray
   747  000A90  20F4               	addwfc	prodh,w,c
   748  000A92  6EDA               	movwf	fsr2h,c
   749  000A94  C0CB  FFDF         	movff	xTaskCreate@pvTaskCode+1,indf2
   750                           
   751                           ;Structure.c: 287: TaskArray[taskPosition].currentAdd1=(pvTaskCode & 0x000000ff);
   752  000A98  5016               	movf	_taskPosition,w,c
   753  000A9A  0D18               	mullw	24
   754  000A9C  0E06               	movlw	6
   755  000A9E  26F3               	addwf	prodl,f,c
   756  000AA0  0E00               	movlw	0
   757  000AA2  22F4               	addwfc	prodh,f,c
   758  000AA4  0ED4               	movlw	low _TaskArray
   759  000AA6  24F3               	addwf	prodl,w,c
   760  000AA8  6ED9               	movwf	fsr2l,c
   761  000AAA  0E00               	movlw	high _TaskArray
   762  000AAC  20F4               	addwfc	prodh,w,c
   763  000AAE  6EDA               	movwf	fsr2h,c
   764  000AB0  C0CA  FFDF         	movff	xTaskCreate@pvTaskCode,indf2
   765                           
   766                           ;Structure.c: 288: TaskArray[taskPosition].Priority=Prior;
   767  000AB4  5016               	movf	_taskPosition,w,c
   768  000AB6  0D18               	mullw	24
   769  000AB8  0E05               	movlw	5
   770  000ABA  26F3               	addwf	prodl,f,c
   771  000ABC  0E00               	movlw	0
   772  000ABE  22F4               	addwfc	prodh,f,c
   773  000AC0  0ED4               	movlw	low _TaskArray
   774  000AC2  24F3               	addwf	prodl,w,c
   775  000AC4  6ED9               	movwf	fsr2l,c
   776  000AC6  0E00               	movlw	high _TaskArray
   777  000AC8  20F4               	addwfc	prodh,w,c
   778  000ACA  6EDA               	movwf	fsr2h,c
   779  000ACC  C0CF  FFDF         	movff	xTaskCreate@Prior,indf2
   780                           
   781                           ;Structure.c: 292: STKPTR--;
   782  000AD0  06FC               	decf	stkptr,f,c	;volatile
   783                           
   784                           ;Structure.c: 293: OSRun();
   785  000AD2  ECE8  F003         	call	_OSRun	;wreg free
   786  000AD6  0012               	return		;funcret
   787  000AD8                     __end_of_xTaskCreate:
   788                           	opt stack 0
   789                           tosu	equ	0xFFF
   790                           tosh	equ	0xFFE
   791                           tosl	equ	0xFFD
   792                           stkptr	equ	0xFFC
   793                           tblptru	equ	0xFF8
   794                           tblptrh	equ	0xFF7
   795                           tblptrl	equ	0xFF6
   796                           tablat	equ	0xFF5
   797                           prodh	equ	0xFF4
   798                           prodl	equ	0xFF3
   799                           intcon	equ	0xFF2
   800                           intcon3	equ	0xFF0
   801                           postinc0	equ	0xFEE
   802                           wreg	equ	0xFE8
   803                           postdec1	equ	0xFE5
   804                           fsr1h	equ	0xFE2
   805                           fsr1l	equ	0xFE1
   806                           indf2	equ	0xFDF
   807                           fsr2h	equ	0xFDA
   808                           fsr2l	equ	0xFD9
   809                           
   810 ;; *************** function _ports_Init *****************
   811 ;; Defined at:
   812 ;;		line 84 in file "main.c"
   813 ;; Parameters:    Size  Location     Type
   814 ;;		None
   815 ;; Auto vars:     Size  Location     Type
   816 ;;		None
   817 ;; Return value:  Size  Location     Type
   818 ;;		None               void
   819 ;; Registers used:
   820 ;;		wreg, status,2
   821 ;; Tracked objects:
   822 ;;		On entry : 0/0
   823 ;;		On exit  : 0/0
   824 ;;		Unchanged: 0/0
   825 ;; Data sizes:     COMRAM   BANK0   BANK1   BANK2   BANK3   BANK4   BANK5   BANK6   BANK7
   826 ;;      Params:         0       0       0       0       0       0       0       0       0
   827 ;;      Locals:         0       0       0       0       0       0       0       0       0
   828 ;;      Temps:          0       0       0       0       0       0       0       0       0
   829 ;;      Totals:         0       0       0       0       0       0       0       0       0
   830 ;;Total ram usage:        0 bytes
   831 ;; Hardware stack levels used:    1
   832 ;; Hardware stack levels required when called:    4
   833 ;; This function calls:
   834 ;;		Nothing
   835 ;; This function is called by:
   836 ;;		_main
   837 ;; This function uses a non-reentrant model
   838 ;;
   839                           
   840                           	psect	text2
   841  001346                     __ptext2:
   842                           	opt stack 0
   843  001346                     _ports_Init:
   844                           	opt stack 26
   845                           
   846                           ;main.c: 85: ADCON1bits.PCFG = 0xFF;
   847                           
   848                           ;incstack = 0
   849  001346  80C1               	bsf	4033,0,c	;volatile
   850  001348  82C1               	bsf	4033,1,c	;volatile
   851  00134A  84C1               	bsf	4033,2,c	;volatile
   852  00134C  86C1               	bsf	4033,3,c	;volatile
   853                           
   854                           ;main.c: 86: LATB = 0x00;
   855  00134E  0E00               	movlw	0
   856  001350  6E8A               	movwf	3978,c	;volatile
   857                           
   858                           ;main.c: 87: TRISB = 0x00;
   859  001352  0E00               	movlw	0
   860  001354  6E93               	movwf	3987,c	;volatile
   861                           
   862                           ;main.c: 90: TRISBbits.RB0=1;
   863  001356  8093               	bsf	3987,0,c	;volatile
   864                           
   865                           ;main.c: 91: TRISBbits.RB1=1;
   866  001358  8293               	bsf	3987,1,c	;volatile
   867                           
   868                           ;main.c: 92: TRISBbits.RB2=1;
   869  00135A  8493               	bsf	3987,2,c	;volatile
   870  00135C  0012               	return		;funcret
   871  00135E                     __end_of_ports_Init:
   872                           	opt stack 0
   873                           tosu	equ	0xFFF
   874                           tosh	equ	0xFFE
   875                           tosl	equ	0xFFD
   876                           stkptr	equ	0xFFC
   877                           tblptru	equ	0xFF8
   878                           tblptrh	equ	0xFF7
   879                           tblptrl	equ	0xFF6
   880                           tablat	equ	0xFF5
   881                           prodh	equ	0xFF4
   882                           prodl	equ	0xFF3
   883                           intcon	equ	0xFF2
   884                           intcon3	equ	0xFF0
   885                           postinc0	equ	0xFEE
   886                           wreg	equ	0xFE8
   887                           postdec1	equ	0xFE5
   888                           fsr1h	equ	0xFE2
   889                           fsr1l	equ	0xFE1
   890                           indf2	equ	0xFDF
   891                           fsr2h	equ	0xFDA
   892                           fsr2l	equ	0xFD9
   893                           
   894 ;; *************** function _extInt *****************
   895 ;; Defined at:
   896 ;;		line 67 in file "main.c"
   897 ;; Parameters:    Size  Location     Type
   898 ;;		None
   899 ;; Auto vars:     Size  Location     Type
   900 ;;		None
   901 ;; Return value:  Size  Location     Type
   902 ;;		None               void
   903 ;; Registers used:
   904 ;;		None
   905 ;; Tracked objects:
   906 ;;		On entry : 0/0
   907 ;;		On exit  : 0/0
   908 ;;		Unchanged: 0/0
   909 ;; Data sizes:     COMRAM   BANK0   BANK1   BANK2   BANK3   BANK4   BANK5   BANK6   BANK7
   910 ;;      Params:         0       0       0       0       0       0       0       0       0
   911 ;;      Locals:         0       0       0       0       0       0       0       0       0
   912 ;;      Temps:          0       0       0       0       0       0       0       0       0
   913 ;;      Totals:         0       0       0       0       0       0       0       0       0
   914 ;;Total ram usage:        0 bytes
   915 ;; Hardware stack levels used:    1
   916 ;; Hardware stack levels required when called:    4
   917 ;; This function calls:
   918 ;;		Nothing
   919 ;; This function is called by:
   920 ;;		_main
   921 ;; This function uses a non-reentrant model
   922 ;;
   923                           
   924                           	psect	text3
   925  00135E                     __ptext3:
   926                           	opt stack 0
   927  00135E                     _extInt:
   928                           	opt stack 26
   929                           
   930                           ;main.c: 69: INTCONbits.INT0IE=0;
   931                           
   932                           ;incstack = 0
   933  00135E  98F2               	bcf	intcon,4,c	;volatile
   934                           
   935                           ;main.c: 70: INTCON3bits.INT1IE=1;
   936  001360  86F0               	bsf	intcon3,3,c	;volatile
   937                           
   938                           ;main.c: 71: INTCON3bits.INT2IE=1;
   939  001362  88F0               	bsf	intcon3,4,c	;volatile
   940                           
   941                           ;main.c: 74: INTCON3bits.INT1IP=0;
   942  001364  9CF0               	bcf	intcon3,6,c	;volatile
   943                           
   944                           ;main.c: 75: INTCON3bits.INT2IP=0;
   945  001366  9EF0               	bcf	intcon3,7,c	;volatile
   946                           
   947                           ;main.c: 77: INTCON2bits.INTEDG0=0;
   948  001368  9CF1               	bcf	intcon2,6,c	;volatile
   949                           
   950                           ;main.c: 78: INTCON2bits.INTEDG1=0;
   951  00136A  9AF1               	bcf	intcon2,5,c	;volatile
   952                           
   953                           ;main.c: 79: INTCON2bits.INTEDG2=0;
   954  00136C  98F1               	bcf	intcon2,4,c	;volatile
   955  00136E  0012               	return		;funcret
   956  001370                     __end_of_extInt:
   957                           	opt stack 0
   958                           tosu	equ	0xFFF
   959                           tosh	equ	0xFFE
   960                           tosl	equ	0xFFD
   961                           stkptr	equ	0xFFC
   962                           tblptru	equ	0xFF8
   963                           tblptrh	equ	0xFF7
   964                           tblptrl	equ	0xFF6
   965                           tablat	equ	0xFF5
   966                           prodh	equ	0xFF4
   967                           prodl	equ	0xFF3
   968                           intcon	equ	0xFF2
   969                           intcon2	equ	0xFF1
   970                           intcon3	equ	0xFF0
   971                           postinc0	equ	0xFEE
   972                           wreg	equ	0xFE8
   973                           postdec1	equ	0xFE5
   974                           fsr1h	equ	0xFE2
   975                           fsr1l	equ	0xFE1
   976                           indf2	equ	0xFDF
   977                           fsr2h	equ	0xFDA
   978                           fsr2l	equ	0xFD9
   979                           
   980 ;; *************** function _RX1 *****************
   981 ;; Defined at:
   982 ;;		line 97 in file "main.c"
   983 ;; Parameters:    Size  Location     Type
   984 ;;		None
   985 ;; Auto vars:     Size  Location     Type
   986 ;;		None
   987 ;; Return value:  Size  Location     Type
   988 ;;		None               void
   989 ;; Registers used:
   990 ;;		wreg, fsr1l, fsr1h, fsr2l, fsr2h, status,2, status,0, prodl, prodh, cstack
   991 ;; Tracked objects:
   992 ;;		On entry : 0/0
   993 ;;		On exit  : 0/0
   994 ;;		Unchanged: 0/0
   995 ;; Data sizes:     COMRAM   BANK0   BANK1   BANK2   BANK3   BANK4   BANK5   BANK6   BANK7
   996 ;;      Params:         0       0       0       0       0       0       0       0       0
   997 ;;      Locals:         0       0       0       0       0       0       0       0       0
   998 ;;      Temps:          0       0       0       0       0       0       0       0       0
   999 ;;      Totals:         0       0       0       0       0       0       0       0       0
  1000 ;;Total ram usage:        0 bytes
  1001 ;; Hardware stack levels used:    1
  1002 ;; Hardware stack levels required when called:    6
  1003 ;; This function calls:
  1004 ;;		_WritingMailBox
  1005 ;;		_vTaskDelay
  1006 ;;		_vTaskDelete
  1007 ;; This function is called by:
  1008 ;;		_Low_Priority_Interrupt
  1009 ;;		_main
  1010 ;; This function uses a non-reentrant model
  1011 ;;
  1012                           
  1013                           	psect	text4
  1014  001212                     __ptext4:
  1015                           	opt stack 0
  1016  001212                     _RX1:
  1017                           	opt stack 24
  1018                           
  1019                           ;main.c: 98: CN1 = 8;
  1020                           
  1021                           ;incstack = 0
  1022  001212  0E08               	movlw	8
  1023  001214  6E38               	movwf	_CN1,c
  1024                           
  1025                           ;main.c: 99: valor1 = 0;
  1026  001216  0E00               	movlw	0
  1027  001218  6E17               	movwf	_valor1,c
  1028                           
  1029                           ;main.c: 100: vTaskDelay(1);
  1030  00121A  0E00               	movlw	0
  1031  00121C  0100               	movlb	0	; () banked
  1032  00121E  6FCB               	movwf	(vTaskDelay@delayms+1)& (0+255),b
  1033  001220  0E01               	movlw	1
  1034  001222  6FCA               	movwf	vTaskDelay@delayms& (0+255),b
  1035  001224  ECE6  F007         	call	_vTaskDelay	;wreg free
  1036  001228                     l1941:
  1037                           
  1038                           ;main.c: 102: {
  1039                           ;main.c: 103: valor1>>=1;
  1040  001228  90D8               	bcf	status,0,c
  1041  00122A  3217               	rrcf	_valor1,f,c
  1042                           
  1043                           ;main.c: 104: if(PORTBbits.RB1)
  1044  00122C  B281               	btfsc	3969,1,c	;volatile
  1045                           
  1046                           ;main.c: 105: {
  1047                           ;main.c: 106: valor1|=(0x80);
  1048  00122E  8E17               	bsf	_valor1,7,c
  1049                           
  1050                           ;main.c: 107: }
  1051                           ;main.c: 108: vTaskDelay(4);
  1052  001230  0E00               	movlw	0
  1053  001232  0100               	movlb	0	; () banked
  1054  001234  6FCB               	movwf	(vTaskDelay@delayms+1)& (0+255),b
  1055  001236  0E04               	movlw	4
  1056  001238  6FCA               	movwf	vTaskDelay@delayms& (0+255),b
  1057  00123A  ECE6  F007         	call	_vTaskDelay	;wreg free
  1058                           
  1059                           ;main.c: 109: }
  1060                           ;main.c: 110: while(CN1--);
  1061  00123E  0638               	decf	_CN1,f,c
  1062  001240  2838               	incf	_CN1,w,c
  1063  001242  A4D8               	btfss	status,2,c
  1064  001244  D7F1               	goto	l1941
  1065                           
  1066                           ;main.c: 111: vTaskDelay(4);
  1067  001246  0E00               	movlw	0
  1068  001248  0100               	movlb	0	; () banked
  1069  00124A  6FCB               	movwf	(vTaskDelay@delayms+1)& (0+255),b
  1070  00124C  0E04               	movlw	4
  1071  00124E  6FCA               	movwf	vTaskDelay@delayms& (0+255),b
  1072  001250  ECE6  F007         	call	_vTaskDelay	;wreg free
  1073                           
  1074                           ;main.c: 112: WritingMailBox(valor1,0);
  1075  001254  0E00               	movlw	0
  1076  001256  0100               	movlb	0	; () banked
  1077  001258  6FCA               	movwf	WritingMailBox@reader& (0+255),b
  1078  00125A  5017               	movf	_valor1,w,c
  1079  00125C  EC42  F002         	call	_WritingMailBox
  1080                           
  1081                           ;main.c: 113: valor1 = 0;
  1082  001260  0E00               	movlw	0
  1083  001262  6E17               	movwf	_valor1,c
  1084                           
  1085                           ;main.c: 114: INTCON3bits.INT1IF = 0;
  1086  001264  90F0               	bcf	intcon3,0,c	;volatile
  1087                           
  1088                           ;main.c: 115: INTCON3bits.INT1IE = 1;
  1089  001266  86F0               	bsf	intcon3,3,c	;volatile
  1090                           
  1091                           ;main.c: 122: vTaskDelete();
  1092  001268  EC80  F009         	call	_vTaskDelete	;wreg free
  1093  00126C  0012               	return		;funcret
  1094  00126E                     __end_of_RX1:
  1095                           	opt stack 0
  1096                           tosu	equ	0xFFF
  1097                           tosh	equ	0xFFE
  1098                           tosl	equ	0xFFD
  1099                           stkptr	equ	0xFFC
  1100                           tblptru	equ	0xFF8
  1101                           tblptrh	equ	0xFF7
  1102                           tblptrl	equ	0xFF6
  1103                           tablat	equ	0xFF5
  1104                           prodh	equ	0xFF4
  1105                           prodl	equ	0xFF3
  1106                           intcon	equ	0xFF2
  1107                           intcon2	equ	0xFF1
  1108                           intcon3	equ	0xFF0
  1109                           postinc0	equ	0xFEE
  1110                           wreg	equ	0xFE8
  1111                           postdec1	equ	0xFE5
  1112                           fsr1h	equ	0xFE2
  1113                           fsr1l	equ	0xFE1
  1114                           indf2	equ	0xFDF
  1115                           fsr2h	equ	0xFDA
  1116                           fsr2l	equ	0xFD9
  1117                           status	equ	0xFD8
  1118                           
  1119 ;; *************** function _WritingMailBox *****************
  1120 ;; Defined at:
  1121 ;;		line 98 in file "Structure.c"
  1122 ;; Parameters:    Size  Location     Type
  1123 ;;  data            1    wreg     unsigned char 
  1124 ;;  reader          1   14[BANK0 ] unsigned char 
  1125 ;; Auto vars:     Size  Location     Type
  1126 ;;  data            1   18[BANK0 ] unsigned char 
  1127 ;; Return value:  Size  Location     Type
  1128 ;;		None               void
  1129 ;; Registers used:
  1130 ;;		wreg, fsr1l, fsr1h, fsr2l, fsr2h, status,2, status,0, prodl, prodh, cstack
  1131 ;; Tracked objects:
  1132 ;;		On entry : 0/0
  1133 ;;		On exit  : 0/0
  1134 ;;		Unchanged: 0/0
  1135 ;; Data sizes:     COMRAM   BANK0   BANK1   BANK2   BANK3   BANK4   BANK5   BANK6   BANK7
  1136 ;;      Params:         0       1       0       0       0       0       0       0       0
  1137 ;;      Locals:         0       1       0       0       0       0       0       0       0
  1138 ;;      Temps:          0       3       0       0       0       0       0       0       0
  1139 ;;      Totals:         0       5       0       0       0       0       0       0       0
  1140 ;;Total ram usage:        5 bytes
  1141 ;; Hardware stack levels used:    1
  1142 ;; Hardware stack levels required when called:    5
  1143 ;; This function calls:
  1144 ;;		_OSRun
  1145 ;;		_waitForBuffer
  1146 ;; This function is called by:
  1147 ;;		_RX1
  1148 ;; This function uses a non-reentrant model
  1149 ;;
  1150                           
  1151                           	psect	text5
  1152  000484                     __ptext5:
  1153                           	opt stack 0
  1154  000484                     _WritingMailBox:
  1155                           	opt stack 24
  1156                           
  1157                           ;incstack = 0
  1158                           ;WritingMailBox@data stored from wreg
  1159  000484  0100               	movlb	0	; () banked
  1160  000486  6FCE               	movwf	WritingMailBox@data& (0+255),b
  1161                           
  1162                           ;Structure.c: 99: GIE = 0;
  1163  000488  9EF2               	bcf	intcon,7,c	;volatile
  1164                           
  1165                           ;Structure.c: 100: index_wmb=10;
  1166  00048A  0E0A               	movlw	10
  1167  00048C  6E12               	movwf	_index_wmb,c
  1168                           
  1169                           ;Structure.c: 101: for(i_wmb=0;i_wmb<11;i_wmb++){
  1170  00048E  0E00               	movlw	0
  1171  000490  6E0C               	movwf	_i_wmb,c
  1172  000492                     l1817:
  1173  000492  0E0A               	movlw	10
  1174  000494  640C               	cpfsgt	_i_wmb,c
  1175  000496  D001               	goto	l1821
  1176  000498  D07A               	goto	l1843
  1177  00049A                     l1821:
  1178                           
  1179                           ;Structure.c: 102: if(MailBoxArray[i_wmb].Writer==actualPosition &&
  1180                           ;Structure.c: 103: MailBoxArray[i_wmb].Reader==reader){
  1181  00049A  500C               	movf	_i_wmb,w,c
  1182  00049C  0D08               	mullw	8
  1183  00049E  0E01               	movlw	1
  1184  0004A0  26F3               	addwf	prodl,f,c
  1185  0004A2  0E00               	movlw	0
  1186  0004A4  22F4               	addwfc	prodh,f,c
  1187  0004A6  0E60               	movlw	low _MailBoxArray
  1188  0004A8  24F3               	addwf	prodl,w,c
  1189  0004AA  6ED9               	movwf	fsr2l,c
  1190  0004AC  0E00               	movlw	high _MailBoxArray
  1191  0004AE  20F4               	addwfc	prodh,w,c
  1192  0004B0  6EDA               	movwf	fsr2h,c
  1193  0004B2  503A               	movf	_actualPosition,w,c
  1194  0004B4  18DE               	xorwf	postinc2,w,c
  1195  0004B6  A4D8               	btfss	status,2,c
  1196  0004B8  D068               	goto	l1839
  1197  0004BA  500C               	movf	_i_wmb,w,c
  1198  0004BC  0D08               	mullw	8
  1199  0004BE  0E60               	movlw	low _MailBoxArray
  1200  0004C0  24F3               	addwf	prodl,w,c
  1201  0004C2  6ED9               	movwf	fsr2l,c
  1202  0004C4  0E00               	movlw	high _MailBoxArray
  1203  0004C6  20F4               	addwfc	prodh,w,c
  1204  0004C8  6EDA               	movwf	fsr2h,c
  1205  0004CA  0100               	movlb	0	; () banked
  1206  0004CC  51CA               	movf	WritingMailBox@reader& (0+255),w,b
  1207  0004CE  18DE               	xorwf	postinc2,w,c
  1208  0004D0  A4D8               	btfss	status,2,c
  1209  0004D2  D05B               	goto	l1839
  1210                           
  1211                           ; BSR set to: 0
  1212                           ;Structure.c: 104: index_wmb=i_wmb;
  1213  0004D4  C00C  F012         	movff	_i_wmb,_index_wmb
  1214                           
  1215                           ; BSR set to: 0
  1216                           ;Structure.c: 105: i_wmb=100;
  1217  0004D8  0E64               	movlw	100
  1218  0004DA  6E0C               	movwf	_i_wmb,c
  1219                           
  1220                           ; BSR set to: 0
  1221                           ;Structure.c: 106: TaskArray[actualPosition].writeInterruptedIndex = index_wmb;
  1222  0004DC  503A               	movf	_actualPosition,w,c
  1223  0004DE  0D18               	mullw	24
  1224  0004E0  0E14               	movlw	20
  1225  0004E2  26F3               	addwf	prodl,f,c
  1226  0004E4  0E00               	movlw	0
  1227  0004E6  22F4               	addwfc	prodh,f,c
  1228  0004E8  0ED4               	movlw	low _TaskArray
  1229  0004EA  24F3               	addwf	prodl,w,c
  1230  0004EC  6ED9               	movwf	fsr2l,c
  1231  0004EE  0E00               	movlw	high _TaskArray
  1232  0004F0  20F4               	addwfc	prodh,w,c
  1233  0004F2  6EDA               	movwf	fsr2h,c
  1234  0004F4  C012  FFDF         	movff	_index_wmb,indf2
  1235                           
  1236                           ; BSR set to: 0
  1237                           ;Structure.c: 107: TaskArray[actualPosition].MessageData=data;
  1238  0004F8  503A               	movf	_actualPosition,w,c
  1239  0004FA  0D18               	mullw	24
  1240  0004FC  0E12               	movlw	18
  1241  0004FE  26F3               	addwf	prodl,f,c
  1242  000500  0E00               	movlw	0
  1243  000502  22F4               	addwfc	prodh,f,c
  1244  000504  0ED4               	movlw	low _TaskArray
  1245  000506  24F3               	addwf	prodl,w,c
  1246  000508  6ED9               	movwf	fsr2l,c
  1247  00050A  0E00               	movlw	high _TaskArray
  1248  00050C  20F4               	addwfc	prodh,w,c
  1249  00050E  6EDA               	movwf	fsr2h,c
  1250  000510  C0CE  FFDF         	movff	WritingMailBox@data,indf2
  1251                           
  1252                           ; BSR set to: 0
  1253                           ;Structure.c: 108: if(MailBoxArray[index_wmb].Available==1){
  1254  000514  5012               	movf	_index_wmb,w,c
  1255  000516  0D08               	mullw	8
  1256  000518  0E02               	movlw	2
  1257  00051A  26F3               	addwf	prodl,f,c
  1258  00051C  0E00               	movlw	0
  1259  00051E  22F4               	addwfc	prodh,f,c
  1260  000520  0E60               	movlw	low _MailBoxArray
  1261  000522  24F3               	addwf	prodl,w,c
  1262  000524  6ED9               	movwf	fsr2l,c
  1263  000526  0E00               	movlw	high _MailBoxArray
  1264  000528  20F4               	addwfc	prodh,w,c
  1265  00052A  6EDA               	movwf	fsr2h,c
  1266  00052C  04DE               	decf	postinc2,w,c
  1267  00052E  A4D8               	btfss	status,2,c
  1268  000530  D02C               	goto	l1839
  1269                           
  1270                           ; BSR set to: 0
  1271                           ;Structure.c: 110: TaskArray[actualPosition].MessageReader=reader;
  1272  000532  503A               	movf	_actualPosition,w,c
  1273  000534  0D18               	mullw	24
  1274  000536  0E11               	movlw	17
  1275  000538  26F3               	addwf	prodl,f,c
  1276  00053A  0E00               	movlw	0
  1277  00053C  22F4               	addwfc	prodh,f,c
  1278  00053E  0ED4               	movlw	low _TaskArray
  1279  000540  24F3               	addwf	prodl,w,c
  1280  000542  6ED9               	movwf	fsr2l,c
  1281  000544  0E00               	movlw	high _TaskArray
  1282  000546  20F4               	addwfc	prodh,w,c
  1283  000548  6EDA               	movwf	fsr2h,c
  1284  00054A  C0CA  FFDF         	movff	WritingMailBox@reader,indf2
  1285                           
  1286                           ;Structure.c: 111: TaskArray[actualPosition].MessageData=data;
  1287  00054E  503A               	movf	_actualPosition,w,c
  1288  000550  0D18               	mullw	24
  1289  000552  0E12               	movlw	18
  1290  000554  26F3               	addwf	prodl,f,c
  1291  000556  0E00               	movlw	0
  1292  000558  22F4               	addwfc	prodh,f,c
  1293  00055A  0ED4               	movlw	low _TaskArray
  1294  00055C  24F3               	addwf	prodl,w,c
  1295  00055E  6ED9               	movwf	fsr2l,c
  1296  000560  0E00               	movlw	high _TaskArray
  1297  000562  20F4               	addwfc	prodh,w,c
  1298  000564  6EDA               	movwf	fsr2h,c
  1299  000566  C0CE  FFDF         	movff	WritingMailBox@data,indf2
  1300                           
  1301                           ;Structure.c: 112: TaskArray[actualPosition].WaitMessage = 1;
  1302  00056A  503A               	movf	_actualPosition,w,c
  1303  00056C  0D18               	mullw	24
  1304  00056E  0E0F               	movlw	15
  1305  000570  26F3               	addwf	prodl,f,c
  1306  000572  0E00               	movlw	0
  1307  000574  22F4               	addwfc	prodh,f,c
  1308  000576  0ED4               	movlw	low _TaskArray
  1309  000578  24F3               	addwf	prodl,w,c
  1310  00057A  6ED9               	movwf	fsr2l,c
  1311  00057C  0E00               	movlw	high _TaskArray
  1312  00057E  20F4               	addwfc	prodh,w,c
  1313  000580  6EDA               	movwf	fsr2h,c
  1314  000582  0E01               	movlw	1
  1315  000584  6EDF               	movwf	indf2,c
  1316                           
  1317                           ; BSR set to: 0
  1318                           ;Structure.c: 114: waitForBuffer();
  1319  000586  EC88  F008         	call	_waitForBuffer	;wreg free
  1320  00058A                     l1839:
  1321  00058A  2A0C               	incf	_i_wmb,f,c
  1322  00058C  D782               	goto	l1817
  1323  00058E                     l1843:
  1324                           
  1325                           ;Structure.c: 115: }
  1326                           ;Structure.c: 116: }
  1327                           ;Structure.c: 117: }
  1328                           ;Structure.c: 119: MailBoxArray[ TaskArray[actualPosition].writeInterruptedIndex ].Data=
      +                           TaskArray[actualPosition].MessageData;
  1329  00058E  503A               	movf	_actualPosition,w,c
  1330  000590  0D18               	mullw	24
  1331  000592  0E12               	movlw	18
  1332  000594  26F3               	addwf	prodl,f,c
  1333  000596  0E00               	movlw	0
  1334  000598  22F4               	addwfc	prodh,f,c
  1335  00059A  0ED4               	movlw	low _TaskArray
  1336  00059C  24F3               	addwf	prodl,w,c
  1337  00059E  6ED9               	movwf	fsr2l,c
  1338  0005A0  0E00               	movlw	high _TaskArray
  1339  0005A2  20F4               	addwfc	prodh,w,c
  1340  0005A4  6EDA               	movwf	fsr2h,c
  1341  0005A6  503A               	movf	_actualPosition,w,c
  1342  0005A8  0D18               	mullw	24
  1343  0005AA  0E14               	movlw	20
  1344  0005AC  26F3               	addwf	prodl,f,c
  1345  0005AE  0E00               	movlw	0
  1346  0005B0  22F4               	addwfc	prodh,f,c
  1347  0005B2  0ED4               	movlw	low _TaskArray
  1348  0005B4  24F3               	addwf	prodl,w,c
  1349  0005B6  6EE1               	movwf	fsr1l,c
  1350  0005B8  0E00               	movlw	high _TaskArray
  1351  0005BA  20F4               	addwfc	prodh,w,c
  1352  0005BC  6EE2               	movwf	fsr1h,c
  1353  0005BE  50E7               	movf	indf1,w,c
  1354  0005C0  0100               	movlb	0	; () banked
  1355  0005C2  6FCB               	movwf	??_WritingMailBox& (0+255),b
  1356  0005C4  0100               	movlb	0	; () banked
  1357  0005C6  51CB               	movf	??_WritingMailBox& (0+255),w,b
  1358  0005C8  0D08               	mullw	8
  1359  0005CA  0E03               	movlw	3
  1360  0005CC  26F3               	addwf	prodl,f,c
  1361  0005CE  0E00               	movlw	0
  1362  0005D0  22F4               	addwfc	prodh,f,c
  1363  0005D2  0E60               	movlw	low _MailBoxArray
  1364  0005D4  24F3               	addwf	prodl,w,c
  1365  0005D6  6EE1               	movwf	fsr1l,c
  1366  0005D8  0E00               	movlw	high _MailBoxArray
  1367  0005DA  20F4               	addwfc	prodh,w,c
  1368  0005DC  6EE2               	movwf	fsr1h,c
  1369  0005DE  CFDF FFE7          	movff	indf2,indf1
  1370                           
  1371                           ; BSR set to: 0
  1372                           ;Structure.c: 120: MailBoxArray[ TaskArray[actualPosition].writeInterruptedIndex ].Avail
      +                          able=1;
  1373  0005E2  503A               	movf	_actualPosition,w,c
  1374  0005E4  0D18               	mullw	24
  1375  0005E6  0E14               	movlw	20
  1376  0005E8  26F3               	addwf	prodl,f,c
  1377  0005EA  0E00               	movlw	0
  1378  0005EC  22F4               	addwfc	prodh,f,c
  1379  0005EE  0ED4               	movlw	low _TaskArray
  1380  0005F0  24F3               	addwf	prodl,w,c
  1381  0005F2  6ED9               	movwf	fsr2l,c
  1382  0005F4  0E00               	movlw	high _TaskArray
  1383  0005F6  20F4               	addwfc	prodh,w,c
  1384  0005F8  6EDA               	movwf	fsr2h,c
  1385  0005FA  50DF               	movf	indf2,w,c
  1386  0005FC  0100               	movlb	0	; () banked
  1387  0005FE  6FCB               	movwf	??_WritingMailBox& (0+255),b
  1388  000600  0100               	movlb	0	; () banked
  1389  000602  51CB               	movf	??_WritingMailBox& (0+255),w,b
  1390  000604  0D08               	mullw	8
  1391  000606  0E02               	movlw	2
  1392  000608  26F3               	addwf	prodl,f,c
  1393  00060A  0E00               	movlw	0
  1394  00060C  22F4               	addwfc	prodh,f,c
  1395  00060E  0E60               	movlw	low _MailBoxArray
  1396  000610  24F3               	addwf	prodl,w,c
  1397  000612  6ED9               	movwf	fsr2l,c
  1398  000614  0E00               	movlw	high _MailBoxArray
  1399  000616  20F4               	addwfc	prodh,w,c
  1400  000618  6EDA               	movwf	fsr2h,c
  1401  00061A  0E01               	movlw	1
  1402  00061C  6EDF               	movwf	indf2,c
  1403                           
  1404                           ; BSR set to: 0
  1405                           ;Structure.c: 121: if(TaskArray[ MailBoxArray[ TaskArray[actualPosition].writeInterrupte
      +                          dIndex ].Reader ].state == 1 && TaskArray[ MailBoxArray[ TaskArray[actualPosition].write
      +                          InterruptedIndex ].Reader].WaitMessage == 2){
  1406  00061E  503A               	movf	_actualPosition,w,c
  1407  000620  0D18               	mullw	24
  1408  000622  0E14               	movlw	20
  1409  000624  26F3               	addwf	prodl,f,c
  1410  000626  0E00               	movlw	0
  1411  000628  22F4               	addwfc	prodh,f,c
  1412  00062A  0ED4               	movlw	low _TaskArray
  1413  00062C  24F3               	addwf	prodl,w,c
  1414  00062E  6ED9               	movwf	fsr2l,c
  1415  000630  0E00               	movlw	high _TaskArray
  1416  000632  20F4               	addwfc	prodh,w,c
  1417  000634  6EDA               	movwf	fsr2h,c
  1418  000636  50DF               	movf	indf2,w,c
  1419  000638  0100               	movlb	0	; () banked
  1420  00063A  6FCB               	movwf	??_WritingMailBox& (0+255),b
  1421  00063C  0100               	movlb	0	; () banked
  1422  00063E  51CB               	movf	??_WritingMailBox& (0+255),w,b
  1423  000640  0D08               	mullw	8
  1424  000642  0E60               	movlw	low _MailBoxArray
  1425  000644  24F3               	addwf	prodl,w,c
  1426  000646  6ED9               	movwf	fsr2l,c
  1427  000648  0E00               	movlw	high _MailBoxArray
  1428  00064A  20F4               	addwfc	prodh,w,c
  1429  00064C  6EDA               	movwf	fsr2h,c
  1430  00064E  50DF               	movf	indf2,w,c
  1431  000650  0100               	movlb	0	; () banked
  1432  000652  6FCC               	movwf	(??_WritingMailBox+1)& (0+255),b
  1433  000654  0100               	movlb	0	; () banked
  1434  000656  51CC               	movf	(??_WritingMailBox+1)& (0+255),w,b
  1435  000658  0D18               	mullw	24
  1436  00065A  0E03               	movlw	3
  1437  00065C  26F3               	addwf	prodl,f,c
  1438  00065E  0E00               	movlw	0
  1439  000660  22F4               	addwfc	prodh,f,c
  1440  000662  0ED4               	movlw	low _TaskArray
  1441  000664  24F3               	addwf	prodl,w,c
  1442  000666  6ED9               	movwf	fsr2l,c
  1443  000668  0E00               	movlw	high _TaskArray
  1444  00066A  20F4               	addwfc	prodh,w,c
  1445  00066C  6EDA               	movwf	fsr2h,c
  1446  00066E  04DE               	decf	postinc2,w,c
  1447  000670  A4D8               	btfss	status,2,c
  1448  000672  0012               	return	
  1449                           
  1450                           ; BSR set to: 0
  1451  000674  503A               	movf	_actualPosition,w,c
  1452  000676  0D18               	mullw	24
  1453  000678  0E14               	movlw	20
  1454  00067A  26F3               	addwf	prodl,f,c
  1455  00067C  0E00               	movlw	0
  1456  00067E  22F4               	addwfc	prodh,f,c
  1457  000680  0ED4               	movlw	low _TaskArray
  1458  000682  24F3               	addwf	prodl,w,c
  1459  000684  6ED9               	movwf	fsr2l,c
  1460  000686  0E00               	movlw	high _TaskArray
  1461  000688  20F4               	addwfc	prodh,w,c
  1462  00068A  6EDA               	movwf	fsr2h,c
  1463  00068C  50DF               	movf	indf2,w,c
  1464  00068E  0100               	movlb	0	; () banked
  1465  000690  6FCB               	movwf	??_WritingMailBox& (0+255),b
  1466  000692  0100               	movlb	0	; () banked
  1467  000694  51CB               	movf	??_WritingMailBox& (0+255),w,b
  1468  000696  0D08               	mullw	8
  1469  000698  0E60               	movlw	low _MailBoxArray
  1470  00069A  24F3               	addwf	prodl,w,c
  1471  00069C  6ED9               	movwf	fsr2l,c
  1472  00069E  0E00               	movlw	high _MailBoxArray
  1473  0006A0  20F4               	addwfc	prodh,w,c
  1474  0006A2  6EDA               	movwf	fsr2h,c
  1475  0006A4  50DF               	movf	indf2,w,c
  1476  0006A6  0100               	movlb	0	; () banked
  1477  0006A8  6FCC               	movwf	(??_WritingMailBox+1)& (0+255),b
  1478  0006AA  0100               	movlb	0	; () banked
  1479  0006AC  51CC               	movf	(??_WritingMailBox+1)& (0+255),w,b
  1480  0006AE  0D18               	mullw	24
  1481  0006B0  0E0F               	movlw	15
  1482  0006B2  26F3               	addwf	prodl,f,c
  1483  0006B4  0E00               	movlw	0
  1484  0006B6  22F4               	addwfc	prodh,f,c
  1485  0006B8  0ED4               	movlw	low _TaskArray
  1486  0006BA  24F3               	addwf	prodl,w,c
  1487  0006BC  6ED9               	movwf	fsr2l,c
  1488  0006BE  0E00               	movlw	high _TaskArray
  1489  0006C0  20F4               	addwfc	prodh,w,c
  1490  0006C2  6EDA               	movwf	fsr2h,c
  1491  0006C4  0E02               	movlw	2
  1492  0006C6  18DE               	xorwf	postinc2,w,c
  1493  0006C8  A4D8               	btfss	status,2,c
  1494  0006CA  0012               	return	
  1495                           
  1496                           ; BSR set to: 0
  1497                           ;Structure.c: 122: TaskArray[ MailBoxArray[ TaskArray[actualPosition].writeInterruptedIn
      +                          dex ].Reader ].state = 2;
  1498  0006CC  503A               	movf	_actualPosition,w,c
  1499  0006CE  0D18               	mullw	24
  1500  0006D0  0E14               	movlw	20
  1501  0006D2  26F3               	addwf	prodl,f,c
  1502  0006D4  0E00               	movlw	0
  1503  0006D6  22F4               	addwfc	prodh,f,c
  1504  0006D8  0ED4               	movlw	low _TaskArray
  1505  0006DA  24F3               	addwf	prodl,w,c
  1506  0006DC  6ED9               	movwf	fsr2l,c
  1507  0006DE  0E00               	movlw	high _TaskArray
  1508  0006E0  20F4               	addwfc	prodh,w,c
  1509  0006E2  6EDA               	movwf	fsr2h,c
  1510  0006E4  50DF               	movf	indf2,w,c
  1511  0006E6  0100               	movlb	0	; () banked
  1512  0006E8  6FCB               	movwf	??_WritingMailBox& (0+255),b
  1513  0006EA  0100               	movlb	0	; () banked
  1514  0006EC  51CB               	movf	??_WritingMailBox& (0+255),w,b
  1515  0006EE  0D08               	mullw	8
  1516  0006F0  0E60               	movlw	low _MailBoxArray
  1517  0006F2  24F3               	addwf	prodl,w,c
  1518  0006F4  6ED9               	movwf	fsr2l,c
  1519  0006F6  0E00               	movlw	high _MailBoxArray
  1520  0006F8  20F4               	addwfc	prodh,w,c
  1521  0006FA  6EDA               	movwf	fsr2h,c
  1522  0006FC  50DF               	movf	indf2,w,c
  1523  0006FE  0100               	movlb	0	; () banked
  1524  000700  6FCC               	movwf	(??_WritingMailBox+1)& (0+255),b
  1525  000702  0100               	movlb	0	; () banked
  1526  000704  51CC               	movf	(??_WritingMailBox+1)& (0+255),w,b
  1527  000706  0D18               	mullw	24
  1528  000708  0E03               	movlw	3
  1529  00070A  26F3               	addwf	prodl,f,c
  1530  00070C  0E00               	movlw	0
  1531  00070E  22F4               	addwfc	prodh,f,c
  1532  000710  0ED4               	movlw	low _TaskArray
  1533  000712  24F3               	addwf	prodl,w,c
  1534  000714  6ED9               	movwf	fsr2l,c
  1535  000716  0E00               	movlw	high _TaskArray
  1536  000718  20F4               	addwfc	prodh,w,c
  1537  00071A  6EDA               	movwf	fsr2h,c
  1538  00071C  0E02               	movlw	2
  1539  00071E  6EDF               	movwf	indf2,c
  1540                           
  1541                           ;Structure.c: 123: TaskArray[ MailBoxArray[ TaskArray[actualPosition].writeInterruptedIn
      +                          dex ].Reader].WaitMessage = 0;
  1542  000720  503A               	movf	_actualPosition,w,c
  1543  000722  0D18               	mullw	24
  1544  000724  0E14               	movlw	20
  1545  000726  26F3               	addwf	prodl,f,c
  1546  000728  0E00               	movlw	0
  1547  00072A  22F4               	addwfc	prodh,f,c
  1548  00072C  0ED4               	movlw	low _TaskArray
  1549  00072E  24F3               	addwf	prodl,w,c
  1550  000730  6ED9               	movwf	fsr2l,c
  1551  000732  0E00               	movlw	high _TaskArray
  1552  000734  20F4               	addwfc	prodh,w,c
  1553  000736  6EDA               	movwf	fsr2h,c
  1554  000738  50DF               	movf	indf2,w,c
  1555  00073A  0100               	movlb	0	; () banked
  1556  00073C  6FCB               	movwf	??_WritingMailBox& (0+255),b
  1557  00073E  0100               	movlb	0	; () banked
  1558  000740  51CB               	movf	??_WritingMailBox& (0+255),w,b
  1559  000742  0D08               	mullw	8
  1560  000744  0E60               	movlw	low _MailBoxArray
  1561  000746  24F3               	addwf	prodl,w,c
  1562  000748  6ED9               	movwf	fsr2l,c
  1563  00074A  0E00               	movlw	high _MailBoxArray
  1564  00074C  20F4               	addwfc	prodh,w,c
  1565  00074E  6EDA               	movwf	fsr2h,c
  1566  000750  50DF               	movf	indf2,w,c
  1567  000752  0100               	movlb	0	; () banked
  1568  000754  6FCC               	movwf	(??_WritingMailBox+1)& (0+255),b
  1569  000756  0100               	movlb	0	; () banked
  1570  000758  51CC               	movf	(??_WritingMailBox+1)& (0+255),w,b
  1571  00075A  0D18               	mullw	24
  1572  00075C  0E0F               	movlw	15
  1573  00075E  26F3               	addwf	prodl,f,c
  1574  000760  0E00               	movlw	0
  1575  000762  22F4               	addwfc	prodh,f,c
  1576  000764  0ED4               	movlw	low _TaskArray
  1577  000766  24F3               	addwf	prodl,w,c
  1578  000768  6ED9               	movwf	fsr2l,c
  1579  00076A  0E00               	movlw	high _TaskArray
  1580  00076C  20F4               	addwfc	prodh,w,c
  1581  00076E  6EDA               	movwf	fsr2h,c
  1582  000770  0E00               	movlw	0
  1583  000772  6EDF               	movwf	indf2,c
  1584                           
  1585                           ;Structure.c: 125: TaskArray[actualPosition].currentAdd3=TOSU;
  1586  000774  503A               	movf	_actualPosition,w,c
  1587  000776  0D18               	mullw	24
  1588  000778  0E08               	movlw	8
  1589  00077A  26F3               	addwf	prodl,f,c
  1590  00077C  0E00               	movlw	0
  1591  00077E  22F4               	addwfc	prodh,f,c
  1592  000780  0ED4               	movlw	low _TaskArray
  1593  000782  24F3               	addwf	prodl,w,c
  1594  000784  6ED9               	movwf	fsr2l,c
  1595  000786  0E00               	movlw	high _TaskArray
  1596  000788  20F4               	addwfc	prodh,w,c
  1597  00078A  6EDA               	movwf	fsr2h,c
  1598  00078C  CFFF FFDF          	movff	tosu,indf2	;volatile
  1599                           
  1600                           ;Structure.c: 126: TaskArray[actualPosition].currentAdd2=TOSH;
  1601  000790  503A               	movf	_actualPosition,w,c
  1602  000792  0D18               	mullw	24
  1603  000794  0E07               	movlw	7
  1604  000796  26F3               	addwf	prodl,f,c
  1605  000798  0E00               	movlw	0
  1606  00079A  22F4               	addwfc	prodh,f,c
  1607  00079C  0ED4               	movlw	low _TaskArray
  1608  00079E  24F3               	addwf	prodl,w,c
  1609  0007A0  6ED9               	movwf	fsr2l,c
  1610  0007A2  0E00               	movlw	high _TaskArray
  1611  0007A4  20F4               	addwfc	prodh,w,c
  1612  0007A6  6EDA               	movwf	fsr2h,c
  1613  0007A8  CFFE FFDF          	movff	tosh,indf2	;volatile
  1614                           
  1615                           ;Structure.c: 127: TaskArray[actualPosition].currentAdd1=TOSL;
  1616  0007AC  503A               	movf	_actualPosition,w,c
  1617  0007AE  0D18               	mullw	24
  1618  0007B0  0E06               	movlw	6
  1619  0007B2  26F3               	addwf	prodl,f,c
  1620  0007B4  0E00               	movlw	0
  1621  0007B6  22F4               	addwfc	prodh,f,c
  1622  0007B8  0ED4               	movlw	low _TaskArray
  1623  0007BA  24F3               	addwf	prodl,w,c
  1624  0007BC  6ED9               	movwf	fsr2l,c
  1625  0007BE  0E00               	movlw	high _TaskArray
  1626  0007C0  20F4               	addwfc	prodh,w,c
  1627  0007C2  6EDA               	movwf	fsr2h,c
  1628  0007C4  CFFD FFDF          	movff	tosl,indf2	;volatile
  1629                           
  1630                           ; BSR set to: 0
  1631                           ;Structure.c: 128: STKPTR--;
  1632  0007C8  06FC               	decf	stkptr,f,c	;volatile
  1633                           
  1634                           ; BSR set to: 0
  1635                           ;Structure.c: 129: OSRun();
  1636  0007CA  ECE8  F003         	call	_OSRun	;wreg free
  1637  0007CE  0012               	return	
  1638  0007D0                     __end_of_WritingMailBox:
  1639                           	opt stack 0
  1640                           tosu	equ	0xFFF
  1641                           tosh	equ	0xFFE
  1642                           tosl	equ	0xFFD
  1643                           stkptr	equ	0xFFC
  1644                           tblptru	equ	0xFF8
  1645                           tblptrh	equ	0xFF7
  1646                           tblptrl	equ	0xFF6
  1647                           tablat	equ	0xFF5
  1648                           prodh	equ	0xFF4
  1649                           prodl	equ	0xFF3
  1650                           intcon	equ	0xFF2
  1651                           intcon2	equ	0xFF1
  1652                           intcon3	equ	0xFF0
  1653                           postinc0	equ	0xFEE
  1654                           wreg	equ	0xFE8
  1655                           indf1	equ	0xFE7
  1656                           postdec1	equ	0xFE5
  1657                           fsr1h	equ	0xFE2
  1658                           fsr1l	equ	0xFE1
  1659                           indf2	equ	0xFDF
  1660                           postinc2	equ	0xFDE
  1661                           fsr2h	equ	0xFDA
  1662                           fsr2l	equ	0xFD9
  1663                           status	equ	0xFD8
  1664                           
  1665 ;; *************** function _PWM1 *****************
  1666 ;; Defined at:
  1667 ;;		line 125 in file "main.c"
  1668 ;; Parameters:    Size  Location     Type
  1669 ;;		None
  1670 ;; Auto vars:     Size  Location     Type
  1671 ;;		None
  1672 ;; Return value:  Size  Location     Type
  1673 ;;		None               void
  1674 ;; Registers used:
  1675 ;;		wreg, fsr1l, fsr1h, fsr2l, fsr2h, status,2, status,0, prodl, prodh, cstack
  1676 ;; Tracked objects:
  1677 ;;		On entry : 0/0
  1678 ;;		On exit  : 0/0
  1679 ;;		Unchanged: 0/0
  1680 ;; Data sizes:     COMRAM   BANK0   BANK1   BANK2   BANK3   BANK4   BANK5   BANK6   BANK7
  1681 ;;      Params:         0       0       0       0       0       0       0       0       0
  1682 ;;      Locals:         0       0       0       0       0       0       0       0       0
  1683 ;;      Temps:          0       2       0       0       0       0       0       0       0
  1684 ;;      Totals:         0       2       0       0       0       0       0       0       0
  1685 ;;Total ram usage:        2 bytes
  1686 ;; Hardware stack levels used:    1
  1687 ;; Hardware stack levels required when called:    6
  1688 ;; This function calls:
  1689 ;;		_ReadingMailBox
  1690 ;;		_mailBoxHasData
  1691 ;;		_mailBox_init_conection
  1692 ;;		_vTaskDelay
  1693 ;;		_vTaskDelete
  1694 ;; This function is called by:
  1695 ;;		_main
  1696 ;; This function uses a non-reentrant model
  1697 ;;
  1698                           
  1699                           	psect	text6
  1700  001192                     __ptext6:
  1701                           	opt stack 0
  1702  001192                     _PWM1:
  1703                           	opt stack 24
  1704                           
  1705                           ;main.c: 127: mailBox_init_conection(0,1);
  1706                           
  1707                           ;incstack = 0
  1708  001192  0E01               	movlw	1
  1709  001194  6E34               	movwf	mailBox_init_conection@writer,c
  1710  001196  0E00               	movlw	0
  1711  001198  EC22  F007         	call	_mailBox_init_conection
  1712                           
  1713                           ;main.c: 128: ReadingMailBox(1,&y);
  1714  00119C  0E19               	movlw	low _y
  1715  00119E  0100               	movlb	0	; () banked
  1716  0011A0  6FCA               	movwf	ReadingMailBox@r& (0+255),b
  1717  0011A2  0E00               	movlw	high _y
  1718  0011A4  0100               	movlb	0	; () banked
  1719  0011A6  6FCB               	movwf	(ReadingMailBox@r+1)& (0+255),b
  1720  0011A8  0E01               	movlw	1
  1721  0011AA  EC70  F000         	call	_ReadingMailBox
  1722  0011AE  F000               	nop		;# 
  1723                           
  1724                           ;main.c: 130: dutyCycle1=y;
  1725  0011B0  C019  F03B         	movff	_y,_dutyCycle1
  1726  0011B4                     l1969:
  1727                           
  1728                           ;main.c: 132: if( mailBoxHasData(0) ){
  1729  0011B4  0E00               	movlw	0
  1730  0011B6  EC94  F009         	call	_mailBoxHasData
  1731  0011BA  0900               	iorlw	0
  1732  0011BC  B4D8               	btfsc	status,2,c
  1733  0011BE  D00B               	goto	l1975
  1734                           
  1735                           ;main.c: 133: ReadingMailBox(1,&y);
  1736  0011C0  0E19               	movlw	low _y
  1737  0011C2  0100               	movlb	0	; () banked
  1738  0011C4  6FCA               	movwf	ReadingMailBox@r& (0+255),b
  1739  0011C6  0E00               	movlw	high _y
  1740  0011C8  0100               	movlb	0	; () banked
  1741  0011CA  6FCB               	movwf	(ReadingMailBox@r+1)& (0+255),b
  1742  0011CC  0E01               	movlw	1
  1743  0011CE  EC70  F000         	call	_ReadingMailBox
  1744                           
  1745                           ;main.c: 134: dutyCycle1=y;
  1746  0011D2  C019  F03B         	movff	_y,_dutyCycle1
  1747  0011D6                     l1975:
  1748                           
  1749                           ;main.c: 135: }
  1750                           ;main.c: 136: LATB3= 1;
  1751  0011D6  868A               	bsf	3978,3,c	;volatile
  1752                           
  1753                           ;main.c: 140: vTaskDelay(dutyCycle1);
  1754  0011D8  C03B  F0CA         	movff	_dutyCycle1,vTaskDelay@delayms
  1755  0011DC  0100               	movlb	0	; () banked
  1756  0011DE  6BCB               	clrf	(vTaskDelay@delayms+1)& (0+255),b
  1757  0011E0  ECE6  F007         	call	_vTaskDelay	;wreg free
  1758                           
  1759                           ;main.c: 142: LATB3= 0;
  1760  0011E4  968A               	bcf	3978,3,c	;volatile
  1761                           
  1762                           ;main.c: 144: vTaskDelay(100-dutyCycle1);
  1763  0011E6  503B               	movf	_dutyCycle1,w,c
  1764  0011E8  0100               	movlb	0	; () banked
  1765  0011EA  6FD2               	movwf	??_PWM1& (0+255),b
  1766  0011EC  6BD3               	clrf	(??_PWM1+1)& (0+255),b
  1767  0011EE  0100               	movlb	0	; () banked
  1768  0011F0  1FD2               	comf	??_PWM1& (0+255),f,b
  1769  0011F2  1FD3               	comf	(??_PWM1+1)& (0+255),f,b
  1770  0011F4  4BD2               	infsnz	??_PWM1& (0+255),f,b
  1771  0011F6  2BD3               	incf	(??_PWM1+1)& (0+255),f,b
  1772  0011F8  0E64               	movlw	100
  1773  0011FA  0100               	movlb	0	; () banked
  1774  0011FC  25D2               	addwf	??_PWM1& (0+255),w,b
  1775  0011FE  0100               	movlb	0	; () banked
  1776  001200  6FCA               	movwf	vTaskDelay@delayms& (0+255),b
  1777  001202  0E00               	movlw	0
  1778  001204  0100               	movlb	0	; () banked
  1779  001206  21D3               	addwfc	(??_PWM1+1)& (0+255),w,b
  1780  001208  0100               	movlb	0	; () banked
  1781  00120A  6FCB               	movwf	(vTaskDelay@delayms+1)& (0+255),b
  1782  00120C  ECE6  F007         	call	_vTaskDelay	;wreg free
  1783  001210  D7D1               	goto	l1969
  1784  001212                     __end_of_PWM1:
  1785                           	opt stack 0
  1786                           tosu	equ	0xFFF
  1787                           tosh	equ	0xFFE
  1788                           tosl	equ	0xFFD
  1789                           stkptr	equ	0xFFC
  1790                           tblptru	equ	0xFF8
  1791                           tblptrh	equ	0xFF7
  1792                           tblptrl	equ	0xFF6
  1793                           tablat	equ	0xFF5
  1794                           prodh	equ	0xFF4
  1795                           prodl	equ	0xFF3
  1796                           intcon	equ	0xFF2
  1797                           intcon2	equ	0xFF1
  1798                           intcon3	equ	0xFF0
  1799                           postinc0	equ	0xFEE
  1800                           wreg	equ	0xFE8
  1801                           indf1	equ	0xFE7
  1802                           postdec1	equ	0xFE5
  1803                           fsr1h	equ	0xFE2
  1804                           fsr1l	equ	0xFE1
  1805                           indf2	equ	0xFDF
  1806                           postinc2	equ	0xFDE
  1807                           fsr2h	equ	0xFDA
  1808                           fsr2l	equ	0xFD9
  1809                           status	equ	0xFD8
  1810                           
  1811 ;; *************** function _vTaskDelete *****************
  1812 ;; Defined at:
  1813 ;;		line 329 in file "Structure.c"
  1814 ;; Parameters:    Size  Location     Type
  1815 ;;		None
  1816 ;; Auto vars:     Size  Location     Type
  1817 ;;		None
  1818 ;; Return value:  Size  Location     Type
  1819 ;;		None               void
  1820 ;; Registers used:
  1821 ;;		wreg, fsr2l, fsr2h, status,2, status,0, prodl, prodh, cstack
  1822 ;; Tracked objects:
  1823 ;;		On entry : 0/0
  1824 ;;		On exit  : 0/0
  1825 ;;		Unchanged: 0/0
  1826 ;; Data sizes:     COMRAM   BANK0   BANK1   BANK2   BANK3   BANK4   BANK5   BANK6   BANK7
  1827 ;;      Params:         0       0       0       0       0       0       0       0       0
  1828 ;;      Locals:         0       0       0       0       0       0       0       0       0
  1829 ;;      Temps:          0       0       0       0       0       0       0       0       0
  1830 ;;      Totals:         0       0       0       0       0       0       0       0       0
  1831 ;;Total ram usage:        0 bytes
  1832 ;; Hardware stack levels used:    1
  1833 ;; Hardware stack levels required when called:    5
  1834 ;; This function calls:
  1835 ;;		_OSRun
  1836 ;; This function is called by:
  1837 ;;		_RX1
  1838 ;;		_PWM1
  1839 ;; This function uses a non-reentrant model
  1840 ;;
  1841                           
  1842                           	psect	text7
  1843  001300                     __ptext7:
  1844                           	opt stack 0
  1845  001300                     _vTaskDelete:
  1846                           	opt stack 24
  1847                           
  1848                           ;Structure.c: 330: INTCONbits.PEIE_GIEL=0;
  1849                           
  1850                           ;incstack = 0
  1851  001300  9CF2               	bcf	intcon,6,c	;volatile
  1852                           
  1853                           ;Structure.c: 331: GIE=0;
  1854  001302  9EF2               	bcf	intcon,7,c	;volatile
  1855                           
  1856                           ;Structure.c: 332: TaskArray[actualPosition].state=0;
  1857  001304  503A               	movf	_actualPosition,w,c
  1858  001306  0D18               	mullw	24
  1859  001308  0E03               	movlw	3
  1860  00130A  26F3               	addwf	prodl,f,c
  1861  00130C  0E00               	movlw	0
  1862  00130E  22F4               	addwfc	prodh,f,c
  1863  001310  0ED4               	movlw	low _TaskArray
  1864  001312  24F3               	addwf	prodl,w,c
  1865  001314  6ED9               	movwf	fsr2l,c
  1866  001316  0E00               	movlw	high _TaskArray
  1867  001318  20F4               	addwfc	prodh,w,c
  1868  00131A  6EDA               	movwf	fsr2h,c
  1869  00131C  0E00               	movlw	0
  1870  00131E  6EDF               	movwf	indf2,c
  1871                           
  1872                           ;Structure.c: 335: STKPTR--;
  1873  001320  06FC               	decf	stkptr,f,c	;volatile
  1874                           
  1875                           ;Structure.c: 336: OSRun();
  1876  001322  ECE8  F003         	call	_OSRun	;wreg free
  1877  001326  0012               	return		;funcret
  1878  001328                     __end_of_vTaskDelete:
  1879                           	opt stack 0
  1880                           tosu	equ	0xFFF
  1881                           tosh	equ	0xFFE
  1882                           tosl	equ	0xFFD
  1883                           stkptr	equ	0xFFC
  1884                           tblptru	equ	0xFF8
  1885                           tblptrh	equ	0xFF7
  1886                           tblptrl	equ	0xFF6
  1887                           tablat	equ	0xFF5
  1888                           prodh	equ	0xFF4
  1889                           prodl	equ	0xFF3
  1890                           intcon	equ	0xFF2
  1891                           intcon2	equ	0xFF1
  1892                           intcon3	equ	0xFF0
  1893                           postinc0	equ	0xFEE
  1894                           wreg	equ	0xFE8
  1895                           indf1	equ	0xFE7
  1896                           postdec1	equ	0xFE5
  1897                           fsr1h	equ	0xFE2
  1898                           fsr1l	equ	0xFE1
  1899                           indf2	equ	0xFDF
  1900                           postinc2	equ	0xFDE
  1901                           fsr2h	equ	0xFDA
  1902                           fsr2l	equ	0xFD9
  1903                           status	equ	0xFD8
  1904                           
  1905 ;; *************** function _vTaskDelay *****************
  1906 ;; Defined at:
  1907 ;;		line 214 in file "Structure.c"
  1908 ;; Parameters:    Size  Location     Type
  1909 ;;  delayms         2   14[BANK0 ] unsigned int 
  1910 ;; Auto vars:     Size  Location     Type
  1911 ;;		None
  1912 ;; Return value:  Size  Location     Type
  1913 ;;		None               void
  1914 ;; Registers used:
  1915 ;;		wreg, fsr2l, fsr2h, status,2, status,0, prodl, prodh, cstack
  1916 ;; Tracked objects:
  1917 ;;		On entry : 0/0
  1918 ;;		On exit  : 0/0
  1919 ;;		Unchanged: 0/0
  1920 ;; Data sizes:     COMRAM   BANK0   BANK1   BANK2   BANK3   BANK4   BANK5   BANK6   BANK7
  1921 ;;      Params:         0       2       0       0       0       0       0       0       0
  1922 ;;      Locals:         0       0       0       0       0       0       0       0       0
  1923 ;;      Temps:          0       0       0       0       0       0       0       0       0
  1924 ;;      Totals:         0       2       0       0       0       0       0       0       0
  1925 ;;Total ram usage:        2 bytes
  1926 ;; Hardware stack levels used:    1
  1927 ;; Hardware stack levels required when called:    5
  1928 ;; This function calls:
  1929 ;;		_OSRun
  1930 ;; This function is called by:
  1931 ;;		_RX1
  1932 ;;		_PWM1
  1933 ;; This function uses a non-reentrant model
  1934 ;;
  1935                           
  1936                           	psect	text8
  1937  000FCC                     __ptext8:
  1938                           	opt stack 0
  1939  000FCC                     _vTaskDelay:
  1940                           	opt stack 24
  1941                           
  1942                           ;Structure.c: 215: INTCONbits.PEIE_GIEL=0;
  1943                           
  1944                           ;incstack = 0
  1945  000FCC  9CF2               	bcf	intcon,6,c	;volatile
  1946                           
  1947                           ;Structure.c: 216: GIE=0;
  1948  000FCE  9EF2               	bcf	intcon,7,c	;volatile
  1949                           
  1950                           ;Structure.c: 217: TaskArray[actualPosition].currentAdd3=TOSU;
  1951  000FD0  503A               	movf	_actualPosition,w,c
  1952  000FD2  0D18               	mullw	24
  1953  000FD4  0E08               	movlw	8
  1954  000FD6  26F3               	addwf	prodl,f,c
  1955  000FD8  0E00               	movlw	0
  1956  000FDA  22F4               	addwfc	prodh,f,c
  1957  000FDC  0ED4               	movlw	low _TaskArray
  1958  000FDE  24F3               	addwf	prodl,w,c
  1959  000FE0  6ED9               	movwf	fsr2l,c
  1960  000FE2  0E00               	movlw	high _TaskArray
  1961  000FE4  20F4               	addwfc	prodh,w,c
  1962  000FE6  6EDA               	movwf	fsr2h,c
  1963  000FE8  CFFF FFDF          	movff	tosu,indf2	;volatile
  1964                           
  1965                           ;Structure.c: 218: TaskArray[actualPosition].currentAdd2=TOSH;
  1966  000FEC  503A               	movf	_actualPosition,w,c
  1967  000FEE  0D18               	mullw	24
  1968  000FF0  0E07               	movlw	7
  1969  000FF2  26F3               	addwf	prodl,f,c
  1970  000FF4  0E00               	movlw	0
  1971  000FF6  22F4               	addwfc	prodh,f,c
  1972  000FF8  0ED4               	movlw	low _TaskArray
  1973  000FFA  24F3               	addwf	prodl,w,c
  1974  000FFC  6ED9               	movwf	fsr2l,c
  1975  000FFE  0E00               	movlw	high _TaskArray
  1976  001000  20F4               	addwfc	prodh,w,c
  1977  001002  6EDA               	movwf	fsr2h,c
  1978  001004  CFFE FFDF          	movff	tosh,indf2	;volatile
  1979                           
  1980                           ;Structure.c: 219: TaskArray[actualPosition].currentAdd1=TOSL;
  1981  001008  503A               	movf	_actualPosition,w,c
  1982  00100A  0D18               	mullw	24
  1983  00100C  0E06               	movlw	6
  1984  00100E  26F3               	addwf	prodl,f,c
  1985  001010  0E00               	movlw	0
  1986  001012  22F4               	addwfc	prodh,f,c
  1987  001014  0ED4               	movlw	low _TaskArray
  1988  001016  24F3               	addwf	prodl,w,c
  1989  001018  6ED9               	movwf	fsr2l,c
  1990  00101A  0E00               	movlw	high _TaskArray
  1991  00101C  20F4               	addwfc	prodh,w,c
  1992  00101E  6EDA               	movwf	fsr2h,c
  1993  001020  CFFD FFDF          	movff	tosl,indf2	;volatile
  1994                           
  1995                           ;Structure.c: 221: TaskArray[actualPosition].state=1;
  1996  001024  503A               	movf	_actualPosition,w,c
  1997  001026  0D18               	mullw	24
  1998  001028  0E03               	movlw	3
  1999  00102A  26F3               	addwf	prodl,f,c
  2000  00102C  0E00               	movlw	0
  2001  00102E  22F4               	addwfc	prodh,f,c
  2002  001030  0ED4               	movlw	low _TaskArray
  2003  001032  24F3               	addwf	prodl,w,c
  2004  001034  6ED9               	movwf	fsr2l,c
  2005  001036  0E00               	movlw	high _TaskArray
  2006  001038  20F4               	addwfc	prodh,w,c
  2007  00103A  6EDA               	movwf	fsr2h,c
  2008  00103C  0E01               	movlw	1
  2009  00103E  6EDF               	movwf	indf2,c
  2010                           
  2011                           ;Structure.c: 222: TaskArray[actualPosition].DelayTime=delayms;
  2012  001040  503A               	movf	_actualPosition,w,c
  2013  001042  0D18               	mullw	24
  2014  001044  0E0C               	movlw	12
  2015  001046  26F3               	addwf	prodl,f,c
  2016  001048  0E00               	movlw	0
  2017  00104A  22F4               	addwfc	prodh,f,c
  2018  00104C  0ED4               	movlw	low _TaskArray
  2019  00104E  24F3               	addwf	prodl,w,c
  2020  001050  6ED9               	movwf	fsr2l,c
  2021  001052  0E00               	movlw	high _TaskArray
  2022  001054  20F4               	addwfc	prodh,w,c
  2023  001056  6EDA               	movwf	fsr2h,c
  2024  001058  C0CA  FFDE         	movff	vTaskDelay@delayms,postinc2
  2025  00105C  C0CB  FFDD         	movff	vTaskDelay@delayms+1,postdec2
  2026                           
  2027                           ;Structure.c: 223: TaskArray[actualPosition].Delayed=1;
  2028  001060  503A               	movf	_actualPosition,w,c
  2029  001062  0D18               	mullw	24
  2030  001064  0E0E               	movlw	14
  2031  001066  26F3               	addwf	prodl,f,c
  2032  001068  0E00               	movlw	0
  2033  00106A  22F4               	addwfc	prodh,f,c
  2034  00106C  0ED4               	movlw	low _TaskArray
  2035  00106E  24F3               	addwf	prodl,w,c
  2036  001070  6ED9               	movwf	fsr2l,c
  2037  001072  0E00               	movlw	high _TaskArray
  2038  001074  20F4               	addwfc	prodh,w,c
  2039  001076  6EDA               	movwf	fsr2h,c
  2040  001078  0E01               	movlw	1
  2041  00107A  6EDF               	movwf	indf2,c
  2042                           
  2043                           ;Structure.c: 224: cont++;
  2044  00107C  2A05               	incf	_cont,f,c
  2045                           
  2046                           ;Structure.c: 225: T1CONbits.TMR1ON=1;
  2047  00107E  80CD               	bsf	4045,0,c	;volatile
  2048                           
  2049                           ;Structure.c: 226: TMR1IE=1;
  2050  001080  809D               	bsf	3997,0,c	;volatile
  2051                           
  2052                           ;Structure.c: 227: STKPTR--;
  2053  001082  06FC               	decf	stkptr,f,c	;volatile
  2054                           
  2055                           ;Structure.c: 228: OSRun();
  2056  001084  ECE8  F003         	call	_OSRun	;wreg free
  2057  001088  0012               	return		;funcret
  2058  00108A                     __end_of_vTaskDelay:
  2059                           	opt stack 0
  2060                           tosu	equ	0xFFF
  2061                           tosh	equ	0xFFE
  2062                           tosl	equ	0xFFD
  2063                           stkptr	equ	0xFFC
  2064                           tblptru	equ	0xFF8
  2065                           tblptrh	equ	0xFF7
  2066                           tblptrl	equ	0xFF6
  2067                           tablat	equ	0xFF5
  2068                           prodh	equ	0xFF4
  2069                           prodl	equ	0xFF3
  2070                           intcon	equ	0xFF2
  2071                           intcon2	equ	0xFF1
  2072                           intcon3	equ	0xFF0
  2073                           postinc0	equ	0xFEE
  2074                           wreg	equ	0xFE8
  2075                           indf1	equ	0xFE7
  2076                           postdec1	equ	0xFE5
  2077                           fsr1h	equ	0xFE2
  2078                           fsr1l	equ	0xFE1
  2079                           indf2	equ	0xFDF
  2080                           postinc2	equ	0xFDE
  2081                           postdec2	equ	0xFDD
  2082                           fsr2h	equ	0xFDA
  2083                           fsr2l	equ	0xFD9
  2084                           status	equ	0xFD8
  2085                           
  2086 ;; *************** function _mailBox_init_conection *****************
  2087 ;; Defined at:
  2088 ;;		line 78 in file "Structure.c"
  2089 ;; Parameters:    Size  Location     Type
  2090 ;;  reader          1    wreg     unsigned char 
  2091 ;;  writer          1   25[COMRAM] unsigned char 
  2092 ;; Auto vars:     Size  Location     Type
  2093 ;;  reader          1   14[BANK0 ] unsigned char 
  2094 ;; Return value:  Size  Location     Type
  2095 ;;		None               void
  2096 ;; Registers used:
  2097 ;;		wreg, fsr2l, fsr2h, status,2, status,0, prodl, prodh
  2098 ;; Tracked objects:
  2099 ;;		On entry : 0/0
  2100 ;;		On exit  : 0/0
  2101 ;;		Unchanged: 0/0
  2102 ;; Data sizes:     COMRAM   BANK0   BANK1   BANK2   BANK3   BANK4   BANK5   BANK6   BANK7
  2103 ;;      Params:         1       0       0       0       0       0       0       0       0
  2104 ;;      Locals:         0       1       0       0       0       0       0       0       0
  2105 ;;      Temps:          0       0       0       0       0       0       0       0       0
  2106 ;;      Totals:         1       1       0       0       0       0       0       0       0
  2107 ;;Total ram usage:        2 bytes
  2108 ;; Hardware stack levels used:    1
  2109 ;; Hardware stack levels required when called:    4
  2110 ;; This function calls:
  2111 ;;		Nothing
  2112 ;; This function is called by:
  2113 ;;		_PWM1
  2114 ;; This function uses a non-reentrant model
  2115 ;;
  2116                           
  2117                           	psect	text9
  2118  000E44                     __ptext9:
  2119                           	opt stack 0
  2120  000E44                     _mailBox_init_conection:
  2121                           	opt stack 25
  2122                           
  2123                           ;incstack = 0
  2124                           ;mailBox_init_conection@reader stored from wreg
  2125  000E44  0100               	movlb	0	; () banked
  2126  000E46  6FCA               	movwf	mailBox_init_conection@reader& (0+255),b
  2127                           
  2128                           ;Structure.c: 79: GIE = 0;
  2129  000E48  9EF2               	bcf	intcon,7,c	;volatile
  2130                           
  2131                           ;Structure.c: 80: index_mic=10;
  2132  000E4A  0E0A               	movlw	10
  2133  000E4C  6E10               	movwf	_index_mic,c
  2134                           
  2135                           ;Structure.c: 81: for(i_mic=0;i_mic<11;i_mic++){
  2136  000E4E  0E00               	movlw	0
  2137  000E50  6E0A               	movwf	_i_mic,c
  2138  000E52                     l1869:
  2139  000E52  0E0A               	movlw	10
  2140  000E54  640A               	cpfsgt	_i_mic,c
  2141  000E56  D001               	goto	l1873
  2142  000E58  D024               	goto	l1885
  2143  000E5A                     l1873:
  2144                           
  2145                           ;Structure.c: 82: if(MailBoxArray[i_mic].Available==0 && MailBoxArray[i_mic].Connected==
      +                          0){
  2146  000E5A  500A               	movf	_i_mic,w,c
  2147  000E5C  0D08               	mullw	8
  2148  000E5E  0E02               	movlw	2
  2149  000E60  26F3               	addwf	prodl,f,c
  2150  000E62  0E00               	movlw	0
  2151  000E64  22F4               	addwfc	prodh,f,c
  2152  000E66  0E60               	movlw	low _MailBoxArray
  2153  000E68  24F3               	addwf	prodl,w,c
  2154  000E6A  6ED9               	movwf	fsr2l,c
  2155  000E6C  0E00               	movlw	high _MailBoxArray
  2156  000E6E  20F4               	addwfc	prodh,w,c
  2157  000E70  6EDA               	movwf	fsr2h,c
  2158  000E72  50DF               	movf	indf2,w,c
  2159  000E74  A4D8               	btfss	status,2,c
  2160  000E76  D013               	goto	l1881
  2161  000E78  500A               	movf	_i_mic,w,c
  2162  000E7A  0D08               	mullw	8
  2163  000E7C  0E06               	movlw	6
  2164  000E7E  26F3               	addwf	prodl,f,c
  2165  000E80  0E00               	movlw	0
  2166  000E82  22F4               	addwfc	prodh,f,c
  2167  000E84  0E60               	movlw	low _MailBoxArray
  2168  000E86  24F3               	addwf	prodl,w,c
  2169  000E88  6ED9               	movwf	fsr2l,c
  2170  000E8A  0E00               	movlw	high _MailBoxArray
  2171  000E8C  20F4               	addwfc	prodh,w,c
  2172  000E8E  6EDA               	movwf	fsr2h,c
  2173  000E90  50DF               	movf	indf2,w,c
  2174  000E92  A4D8               	btfss	status,2,c
  2175  000E94  D004               	goto	l1881
  2176                           
  2177                           ;Structure.c: 83: index_mic=i_mic;
  2178  000E96  C00A  F010         	movff	_i_mic,_index_mic
  2179                           
  2180                           ;Structure.c: 84: i_mic=100;
  2181  000E9A  0E64               	movlw	100
  2182  000E9C  6E0A               	movwf	_i_mic,c
  2183  000E9E                     l1881:
  2184  000E9E  2A0A               	incf	_i_mic,f,c
  2185  000EA0  D7D8               	goto	l1869
  2186  000EA2                     l1885:
  2187                           
  2188                           ;Structure.c: 85: }
  2189                           ;Structure.c: 86: }
  2190                           ;Structure.c: 87: TaskArray[actualPosition].MessageReader=reader;
  2191  000EA2  503A               	movf	_actualPosition,w,c
  2192  000EA4  0D18               	mullw	24
  2193  000EA6  0E11               	movlw	17
  2194  000EA8  26F3               	addwf	prodl,f,c
  2195  000EAA  0E00               	movlw	0
  2196  000EAC  22F4               	addwfc	prodh,f,c
  2197  000EAE  0ED4               	movlw	low _TaskArray
  2198  000EB0  24F3               	addwf	prodl,w,c
  2199  000EB2  6ED9               	movwf	fsr2l,c
  2200  000EB4  0E00               	movlw	high _TaskArray
  2201  000EB6  20F4               	addwfc	prodh,w,c
  2202  000EB8  6EDA               	movwf	fsr2h,c
  2203  000EBA  C0CA  FFDF         	movff	mailBox_init_conection@reader,indf2
  2204                           
  2205                           ;Structure.c: 88: MailBoxArray[index_mic].Reader=reader;
  2206  000EBE  5010               	movf	_index_mic,w,c
  2207  000EC0  0D08               	mullw	8
  2208  000EC2  0E60               	movlw	low _MailBoxArray
  2209  000EC4  24F3               	addwf	prodl,w,c
  2210  000EC6  6ED9               	movwf	fsr2l,c
  2211  000EC8  0E00               	movlw	high _MailBoxArray
  2212  000ECA  20F4               	addwfc	prodh,w,c
  2213  000ECC  6EDA               	movwf	fsr2h,c
  2214  000ECE  C0CA  FFDF         	movff	mailBox_init_conection@reader,indf2
  2215                           
  2216                           ;Structure.c: 89: MailBoxArray[index_mic].Writer=writer;
  2217  000ED2  5010               	movf	_index_mic,w,c
  2218  000ED4  0D08               	mullw	8
  2219  000ED6  0E01               	movlw	1
  2220  000ED8  26F3               	addwf	prodl,f,c
  2221  000EDA  0E00               	movlw	0
  2222  000EDC  22F4               	addwfc	prodh,f,c
  2223  000EDE  0E60               	movlw	low _MailBoxArray
  2224  000EE0  24F3               	addwf	prodl,w,c
  2225  000EE2  6ED9               	movwf	fsr2l,c
  2226  000EE4  0E00               	movlw	high _MailBoxArray
  2227  000EE6  20F4               	addwfc	prodh,w,c
  2228  000EE8  6EDA               	movwf	fsr2h,c
  2229  000EEA  C034  FFDF         	movff	mailBox_init_conection@writer,indf2
  2230                           
  2231                           ;Structure.c: 90: MailBoxArray[index_mic].Connected=1;
  2232  000EEE  5010               	movf	_index_mic,w,c
  2233  000EF0  0D08               	mullw	8
  2234  000EF2  0E06               	movlw	6
  2235  000EF4  26F3               	addwf	prodl,f,c
  2236  000EF6  0E00               	movlw	0
  2237  000EF8  22F4               	addwfc	prodh,f,c
  2238  000EFA  0E60               	movlw	low _MailBoxArray
  2239  000EFC  24F3               	addwf	prodl,w,c
  2240  000EFE  6ED9               	movwf	fsr2l,c
  2241  000F00  0E00               	movlw	high _MailBoxArray
  2242  000F02  20F4               	addwfc	prodh,w,c
  2243  000F04  6EDA               	movwf	fsr2h,c
  2244  000F06  0E01               	movlw	1
  2245  000F08  6EDF               	movwf	indf2,c
  2246  000F0A  0012               	return		;funcret
  2247  000F0C                     __end_of_mailBox_init_conection:
  2248                           	opt stack 0
  2249                           tosu	equ	0xFFF
  2250                           tosh	equ	0xFFE
  2251                           tosl	equ	0xFFD
  2252                           stkptr	equ	0xFFC
  2253                           tblptru	equ	0xFF8
  2254                           tblptrh	equ	0xFF7
  2255                           tblptrl	equ	0xFF6
  2256                           tablat	equ	0xFF5
  2257                           prodh	equ	0xFF4
  2258                           prodl	equ	0xFF3
  2259                           intcon	equ	0xFF2
  2260                           intcon2	equ	0xFF1
  2261                           intcon3	equ	0xFF0
  2262                           postinc0	equ	0xFEE
  2263                           wreg	equ	0xFE8
  2264                           indf1	equ	0xFE7
  2265                           postdec1	equ	0xFE5
  2266                           fsr1h	equ	0xFE2
  2267                           fsr1l	equ	0xFE1
  2268                           indf2	equ	0xFDF
  2269                           postinc2	equ	0xFDE
  2270                           postdec2	equ	0xFDD
  2271                           fsr2h	equ	0xFDA
  2272                           fsr2l	equ	0xFD9
  2273                           status	equ	0xFD8
  2274                           
  2275 ;; *************** function _mailBoxHasData *****************
  2276 ;; Defined at:
  2277 ;;		line 94 in file "Structure.c"
  2278 ;; Parameters:    Size  Location     Type
  2279 ;;  mailboxIndex    1    wreg     unsigned char 
  2280 ;; Auto vars:     Size  Location     Type
  2281 ;;  mailboxIndex    1   25[COMRAM] unsigned char 
  2282 ;; Return value:  Size  Location     Type
  2283 ;;                  1    wreg      unsigned char 
  2284 ;; Registers used:
  2285 ;;		wreg, fsr2l, fsr2h, status,2, status,0, prodl, prodh
  2286 ;; Tracked objects:
  2287 ;;		On entry : 0/0
  2288 ;;		On exit  : 0/0
  2289 ;;		Unchanged: 0/0
  2290 ;; Data sizes:     COMRAM   BANK0   BANK1   BANK2   BANK3   BANK4   BANK5   BANK6   BANK7
  2291 ;;      Params:         0       0       0       0       0       0       0       0       0
  2292 ;;      Locals:         1       0       0       0       0       0       0       0       0
  2293 ;;      Temps:          0       0       0       0       0       0       0       0       0
  2294 ;;      Totals:         1       0       0       0       0       0       0       0       0
  2295 ;;Total ram usage:        1 bytes
  2296 ;; Hardware stack levels used:    1
  2297 ;; Hardware stack levels required when called:    4
  2298 ;; This function calls:
  2299 ;;		Nothing
  2300 ;; This function is called by:
  2301 ;;		_PWM1
  2302 ;; This function uses a non-reentrant model
  2303 ;;
  2304                           
  2305                           	psect	text10
  2306  001328                     __ptext10:
  2307                           	opt stack 0
  2308  001328                     _mailBoxHasData:
  2309                           	opt stack 25
  2310                           
  2311                           ;incstack = 0
  2312                           ;mailBoxHasData@mailboxIndex stored from wreg
  2313  001328  6E34               	movwf	mailBoxHasData@mailboxIndex,c
  2314                           
  2315                           ;Structure.c: 96: return MailBoxArray[mailboxIndex].Available ;
  2316  00132A  5034               	movf	mailBoxHasData@mailboxIndex,w,c
  2317  00132C  0D08               	mullw	8
  2318  00132E  0E02               	movlw	2
  2319  001330  26F3               	addwf	prodl,f,c
  2320  001332  0E00               	movlw	0
  2321  001334  22F4               	addwfc	prodh,f,c
  2322  001336  0E60               	movlw	low _MailBoxArray
  2323  001338  24F3               	addwf	prodl,w,c
  2324  00133A  6ED9               	movwf	fsr2l,c
  2325  00133C  0E00               	movlw	high _MailBoxArray
  2326  00133E  20F4               	addwfc	prodh,w,c
  2327  001340  6EDA               	movwf	fsr2h,c
  2328  001342  50DF               	movf	indf2,w,c
  2329  001344  0012               	return	
  2330  001346                     __end_of_mailBoxHasData:
  2331                           	opt stack 0
  2332                           tosu	equ	0xFFF
  2333                           tosh	equ	0xFFE
  2334                           tosl	equ	0xFFD
  2335                           stkptr	equ	0xFFC
  2336                           tblptru	equ	0xFF8
  2337                           tblptrh	equ	0xFF7
  2338                           tblptrl	equ	0xFF6
  2339                           tablat	equ	0xFF5
  2340                           prodh	equ	0xFF4
  2341                           prodl	equ	0xFF3
  2342                           intcon	equ	0xFF2
  2343                           intcon2	equ	0xFF1
  2344                           intcon3	equ	0xFF0
  2345                           postinc0	equ	0xFEE
  2346                           wreg	equ	0xFE8
  2347                           indf1	equ	0xFE7
  2348                           postdec1	equ	0xFE5
  2349                           fsr1h	equ	0xFE2
  2350                           fsr1l	equ	0xFE1
  2351                           indf2	equ	0xFDF
  2352                           postinc2	equ	0xFDE
  2353                           postdec2	equ	0xFDD
  2354                           fsr2h	equ	0xFDA
  2355                           fsr2l	equ	0xFD9
  2356                           status	equ	0xFD8
  2357                           
  2358 ;; *************** function _ReadingMailBox *****************
  2359 ;; Defined at:
  2360 ;;		line 133 in file "Structure.c"
  2361 ;; Parameters:    Size  Location     Type
  2362 ;;  writter         1    wreg     unsigned char 
  2363 ;;  r               2   14[BANK0 ] PTR unsigned long 
  2364 ;;		 -> y(2), 
  2365 ;; Auto vars:     Size  Location     Type
  2366 ;;  writter         1   21[BANK0 ] unsigned char 
  2367 ;; Return value:  Size  Location     Type
  2368 ;;		None               void
  2369 ;; Registers used:
  2370 ;;		wreg, fsr1l, fsr1h, fsr2l, fsr2h, status,2, status,0, prodl, prodh, cstack
  2371 ;; Tracked objects:
  2372 ;;		On entry : 0/0
  2373 ;;		On exit  : 0/0
  2374 ;;		Unchanged: 0/0
  2375 ;; Data sizes:     COMRAM   BANK0   BANK1   BANK2   BANK3   BANK4   BANK5   BANK6   BANK7
  2376 ;;      Params:         0       2       0       0       0       0       0       0       0
  2377 ;;      Locals:         0       1       0       0       0       0       0       0       0
  2378 ;;      Temps:          0       5       0       0       0       0       0       0       0
  2379 ;;      Totals:         0       8       0       0       0       0       0       0       0
  2380 ;;Total ram usage:        8 bytes
  2381 ;; Hardware stack levels used:    1
  2382 ;; Hardware stack levels required when called:    5
  2383 ;; This function calls:
  2384 ;;		_OSRun
  2385 ;;		_waitForBuffer
  2386 ;; This function is called by:
  2387 ;;		_PWM1
  2388 ;; This function uses a non-reentrant model
  2389 ;;
  2390                           
  2391                           	psect	text11
  2392  0000E0                     __ptext11:
  2393                           	opt stack 0
  2394  0000E0                     _ReadingMailBox:
  2395                           	opt stack 24
  2396                           
  2397                           ;incstack = 0
  2398                           ;ReadingMailBox@writter stored from wreg
  2399  0000E0  0100               	movlb	0	; () banked
  2400  0000E2  6FD1               	movwf	ReadingMailBox@writter& (0+255),b
  2401                           
  2402                           ;Structure.c: 134: GIE = 0;
  2403  0000E4  9EF2               	bcf	intcon,7,c	;volatile
  2404                           
  2405                           ;Structure.c: 136: r_pointer = r;
  2406  0000E6  C0CA  F001         	movff	ReadingMailBox@r,_r_pointer
  2407  0000EA  C0CB  F002         	movff	ReadingMailBox@r+1,_r_pointer+1
  2408                           
  2409                           ;Structure.c: 137: for(i_rmb=0;i_rmb<11;i_rmb++){
  2410  0000EE  0E00               	movlw	0
  2411  0000F0  6E0B               	movwf	_i_rmb,c
  2412  0000F2                     l1891:
  2413  0000F2  0E0A               	movlw	10
  2414  0000F4  640B               	cpfsgt	_i_rmb,c
  2415  0000F6  D001               	goto	l1895
  2416  0000F8  0012               	return	
  2417  0000FA                     l1895:
  2418                           
  2419                           ;Structure.c: 138: if(MailBoxArray[i_rmb].Reader==actualPosition &&
  2420                           ;Structure.c: 139: MailBoxArray[i_rmb].Writer==writter){
  2421  0000FA  500B               	movf	_i_rmb,w,c
  2422  0000FC  0D08               	mullw	8
  2423  0000FE  0E60               	movlw	low _MailBoxArray
  2424  000100  24F3               	addwf	prodl,w,c
  2425  000102  6ED9               	movwf	fsr2l,c
  2426  000104  0E00               	movlw	high _MailBoxArray
  2427  000106  20F4               	addwfc	prodh,w,c
  2428  000108  6EDA               	movwf	fsr2h,c
  2429  00010A  503A               	movf	_actualPosition,w,c
  2430  00010C  18DE               	xorwf	postinc2,w,c
  2431  00010E  A4D8               	btfss	status,2,c
  2432  000110  D1B7               	goto	l1933
  2433  000112  500B               	movf	_i_rmb,w,c
  2434  000114  0D08               	mullw	8
  2435  000116  0E01               	movlw	1
  2436  000118  26F3               	addwf	prodl,f,c
  2437  00011A  0E00               	movlw	0
  2438  00011C  22F4               	addwfc	prodh,f,c
  2439  00011E  0E60               	movlw	low _MailBoxArray
  2440  000120  24F3               	addwf	prodl,w,c
  2441  000122  6ED9               	movwf	fsr2l,c
  2442  000124  0E00               	movlw	high _MailBoxArray
  2443  000126  20F4               	addwfc	prodh,w,c
  2444  000128  6EDA               	movwf	fsr2h,c
  2445  00012A  0100               	movlb	0	; () banked
  2446  00012C  51D1               	movf	ReadingMailBox@writter& (0+255),w,b
  2447  00012E  18DE               	xorwf	postinc2,w,c
  2448  000130  A4D8               	btfss	status,2,c
  2449  000132  D1A6               	goto	l1933
  2450                           
  2451                           ; BSR set to: 0
  2452                           ;Structure.c: 140: index_rmb=i_rmb;
  2453  000134  C00B  F011         	movff	_i_rmb,_index_rmb
  2454                           
  2455                           ; BSR set to: 0
  2456                           ;Structure.c: 141: i_rmb=100;
  2457  000138  0E64               	movlw	100
  2458  00013A  6E0B               	movwf	_i_rmb,c
  2459                           
  2460                           ; BSR set to: 0
  2461                           ;Structure.c: 142: TaskArray[actualPosition].readInterruptedIndex = index_rmb;
  2462  00013C  503A               	movf	_actualPosition,w,c
  2463  00013E  0D18               	mullw	24
  2464  000140  0E13               	movlw	19
  2465  000142  26F3               	addwf	prodl,f,c
  2466  000144  0E00               	movlw	0
  2467  000146  22F4               	addwfc	prodh,f,c
  2468  000148  0ED4               	movlw	low _TaskArray
  2469  00014A  24F3               	addwf	prodl,w,c
  2470  00014C  6ED9               	movwf	fsr2l,c
  2471  00014E  0E00               	movlw	high _TaskArray
  2472  000150  20F4               	addwfc	prodh,w,c
  2473  000152  6EDA               	movwf	fsr2h,c
  2474  000154  C011  FFDF         	movff	_index_rmb,indf2
  2475                           
  2476                           ; BSR set to: 0
  2477                           ;Structure.c: 143: TaskArray[actualPosition].MessageData=MailBoxArray[index_rmb].Data;
  2478  000158  5011               	movf	_index_rmb,w,c
  2479  00015A  0D08               	mullw	8
  2480  00015C  0E03               	movlw	3
  2481  00015E  26F3               	addwf	prodl,f,c
  2482  000160  0E00               	movlw	0
  2483  000162  22F4               	addwfc	prodh,f,c
  2484  000164  0E60               	movlw	low _MailBoxArray
  2485  000166  24F3               	addwf	prodl,w,c
  2486  000168  6ED9               	movwf	fsr2l,c
  2487  00016A  0E00               	movlw	high _MailBoxArray
  2488  00016C  20F4               	addwfc	prodh,w,c
  2489  00016E  6EDA               	movwf	fsr2h,c
  2490  000170  503A               	movf	_actualPosition,w,c
  2491  000172  0D18               	mullw	24
  2492  000174  0E12               	movlw	18
  2493  000176  26F3               	addwf	prodl,f,c
  2494  000178  0E00               	movlw	0
  2495  00017A  22F4               	addwfc	prodh,f,c
  2496  00017C  0ED4               	movlw	low _TaskArray
  2497  00017E  24F3               	addwf	prodl,w,c
  2498  000180  6EE1               	movwf	fsr1l,c
  2499  000182  0E00               	movlw	high _TaskArray
  2500  000184  20F4               	addwfc	prodh,w,c
  2501  000186  6EE2               	movwf	fsr1h,c
  2502  000188  CFDF FFE7          	movff	indf2,indf1
  2503                           
  2504                           ; BSR set to: 0
  2505                           ;Structure.c: 144: if(MailBoxArray[index_rmb].Available==0){
  2506  00018C  5011               	movf	_index_rmb,w,c
  2507  00018E  0D08               	mullw	8
  2508  000190  0E02               	movlw	2
  2509  000192  26F3               	addwf	prodl,f,c
  2510  000194  0E00               	movlw	0
  2511  000196  22F4               	addwfc	prodh,f,c
  2512  000198  0E60               	movlw	low _MailBoxArray
  2513  00019A  24F3               	addwf	prodl,w,c
  2514  00019C  6ED9               	movwf	fsr2l,c
  2515  00019E  0E00               	movlw	high _MailBoxArray
  2516  0001A0  20F4               	addwfc	prodh,w,c
  2517  0001A2  6EDA               	movwf	fsr2h,c
  2518  0001A4  50DF               	movf	indf2,w,c
  2519  0001A6  A4D8               	btfss	status,2,c
  2520  0001A8  D02C               	goto	l1913
  2521                           
  2522                           ; BSR set to: 0
  2523                           ;Structure.c: 145: TaskArray[actualPosition].MessageWritter=writter;
  2524  0001AA  503A               	movf	_actualPosition,w,c
  2525  0001AC  0D18               	mullw	24
  2526  0001AE  0E10               	movlw	16
  2527  0001B0  26F3               	addwf	prodl,f,c
  2528  0001B2  0E00               	movlw	0
  2529  0001B4  22F4               	addwfc	prodh,f,c
  2530  0001B6  0ED4               	movlw	low _TaskArray
  2531  0001B8  24F3               	addwf	prodl,w,c
  2532  0001BA  6ED9               	movwf	fsr2l,c
  2533  0001BC  0E00               	movlw	high _TaskArray
  2534  0001BE  20F4               	addwfc	prodh,w,c
  2535  0001C0  6EDA               	movwf	fsr2h,c
  2536  0001C2  C0D1  FFDF         	movff	ReadingMailBox@writter,indf2
  2537                           
  2538                           ;Structure.c: 146: TaskArray[actualPosition].WaitMessage = 2;
  2539  0001C6  503A               	movf	_actualPosition,w,c
  2540  0001C8  0D18               	mullw	24
  2541  0001CA  0E0F               	movlw	15
  2542  0001CC  26F3               	addwf	prodl,f,c
  2543  0001CE  0E00               	movlw	0
  2544  0001D0  22F4               	addwfc	prodh,f,c
  2545  0001D2  0ED4               	movlw	low _TaskArray
  2546  0001D4  24F3               	addwf	prodl,w,c
  2547  0001D6  6ED9               	movwf	fsr2l,c
  2548  0001D8  0E00               	movlw	high _TaskArray
  2549  0001DA  20F4               	addwfc	prodh,w,c
  2550  0001DC  6EDA               	movwf	fsr2h,c
  2551  0001DE  0E02               	movlw	2
  2552  0001E0  6EDF               	movwf	indf2,c
  2553                           
  2554                           ;Structure.c: 147: TaskArray[actualPosition].state = 1;
  2555  0001E2  503A               	movf	_actualPosition,w,c
  2556  0001E4  0D18               	mullw	24
  2557  0001E6  0E03               	movlw	3
  2558  0001E8  26F3               	addwf	prodl,f,c
  2559  0001EA  0E00               	movlw	0
  2560  0001EC  22F4               	addwfc	prodh,f,c
  2561  0001EE  0ED4               	movlw	low _TaskArray
  2562  0001F0  24F3               	addwf	prodl,w,c
  2563  0001F2  6ED9               	movwf	fsr2l,c
  2564  0001F4  0E00               	movlw	high _TaskArray
  2565  0001F6  20F4               	addwfc	prodh,w,c
  2566  0001F8  6EDA               	movwf	fsr2h,c
  2567  0001FA  0E01               	movlw	1
  2568  0001FC  6EDF               	movwf	indf2,c
  2569                           
  2570                           ; BSR set to: 0
  2571                           ;Structure.c: 148: waitForBuffer();
  2572  0001FE  EC88  F008         	call	_waitForBuffer	;wreg free
  2573  000202                     l1913:
  2574                           
  2575                           ;Structure.c: 149: }
  2576                           ;Structure.c: 150: MailBoxArray[ TaskArray[actualPosition].readInterruptedIndex ].Availa
      +                          ble=0;
  2577  000202  503A               	movf	_actualPosition,w,c
  2578  000204  0D18               	mullw	24
  2579  000206  0E13               	movlw	19
  2580  000208  26F3               	addwf	prodl,f,c
  2581  00020A  0E00               	movlw	0
  2582  00020C  22F4               	addwfc	prodh,f,c
  2583  00020E  0ED4               	movlw	low _TaskArray
  2584  000210  24F3               	addwf	prodl,w,c
  2585  000212  6ED9               	movwf	fsr2l,c
  2586  000214  0E00               	movlw	high _TaskArray
  2587  000216  20F4               	addwfc	prodh,w,c
  2588  000218  6EDA               	movwf	fsr2h,c
  2589  00021A  50DF               	movf	indf2,w,c
  2590  00021C  0100               	movlb	0	; () banked
  2591  00021E  6FCC               	movwf	??_ReadingMailBox& (0+255),b
  2592  000220  0100               	movlb	0	; () banked
  2593  000222  51CC               	movf	??_ReadingMailBox& (0+255),w,b
  2594  000224  0D08               	mullw	8
  2595  000226  0E02               	movlw	2
  2596  000228  26F3               	addwf	prodl,f,c
  2597  00022A  0E00               	movlw	0
  2598  00022C  22F4               	addwfc	prodh,f,c
  2599  00022E  0E60               	movlw	low _MailBoxArray
  2600  000230  24F3               	addwf	prodl,w,c
  2601  000232  6ED9               	movwf	fsr2l,c
  2602  000234  0E00               	movlw	high _MailBoxArray
  2603  000236  20F4               	addwfc	prodh,w,c
  2604  000238  6EDA               	movwf	fsr2h,c
  2605  00023A  0E00               	movlw	0
  2606  00023C  6EDF               	movwf	indf2,c
  2607                           
  2608                           ; BSR set to: 0
  2609                           ;Structure.c: 151: TaskArray[actualPosition].MessageData = MailBoxArray[ TaskArray[actua
      +                          lPosition].readInterruptedIndex ].Data;
  2610  00023E  503A               	movf	_actualPosition,w,c
  2611  000240  0D18               	mullw	24
  2612  000242  0E13               	movlw	19
  2613  000244  26F3               	addwf	prodl,f,c
  2614  000246  0E00               	movlw	0
  2615  000248  22F4               	addwfc	prodh,f,c
  2616  00024A  0ED4               	movlw	low _TaskArray
  2617  00024C  24F3               	addwf	prodl,w,c
  2618  00024E  6ED9               	movwf	fsr2l,c
  2619  000250  0E00               	movlw	high _TaskArray
  2620  000252  20F4               	addwfc	prodh,w,c
  2621  000254  6EDA               	movwf	fsr2h,c
  2622  000256  50DF               	movf	indf2,w,c
  2623  000258  0100               	movlb	0	; () banked
  2624  00025A  6FCC               	movwf	??_ReadingMailBox& (0+255),b
  2625  00025C  0100               	movlb	0	; () banked
  2626  00025E  51CC               	movf	??_ReadingMailBox& (0+255),w,b
  2627  000260  0D08               	mullw	8
  2628  000262  0E03               	movlw	3
  2629  000264  26F3               	addwf	prodl,f,c
  2630  000266  0E00               	movlw	0
  2631  000268  22F4               	addwfc	prodh,f,c
  2632  00026A  0E60               	movlw	low _MailBoxArray
  2633  00026C  24F3               	addwf	prodl,w,c
  2634  00026E  6ED9               	movwf	fsr2l,c
  2635  000270  0E00               	movlw	high _MailBoxArray
  2636  000272  20F4               	addwfc	prodh,w,c
  2637  000274  6EDA               	movwf	fsr2h,c
  2638  000276  503A               	movf	_actualPosition,w,c
  2639  000278  0D18               	mullw	24
  2640  00027A  0E12               	movlw	18
  2641  00027C  26F3               	addwf	prodl,f,c
  2642  00027E  0E00               	movlw	0
  2643  000280  22F4               	addwfc	prodh,f,c
  2644  000282  0ED4               	movlw	low _TaskArray
  2645  000284  24F3               	addwf	prodl,w,c
  2646  000286  6EE1               	movwf	fsr1l,c
  2647  000288  0E00               	movlw	high _TaskArray
  2648  00028A  20F4               	addwfc	prodh,w,c
  2649  00028C  6EE2               	movwf	fsr1h,c
  2650  00028E  CFDF FFE7          	movff	indf2,indf1
  2651                           
  2652                           ; BSR set to: 0
  2653                           ;Structure.c: 152: i_rmb = TaskArray[actualPosition].readInterruptedIndex;
  2654  000292  503A               	movf	_actualPosition,w,c
  2655  000294  0D18               	mullw	24
  2656  000296  0E13               	movlw	19
  2657  000298  26F3               	addwf	prodl,f,c
  2658  00029A  0E00               	movlw	0
  2659  00029C  22F4               	addwfc	prodh,f,c
  2660  00029E  0ED4               	movlw	low _TaskArray
  2661  0002A0  24F3               	addwf	prodl,w,c
  2662  0002A2  6ED9               	movwf	fsr2l,c
  2663  0002A4  0E00               	movlw	high _TaskArray
  2664  0002A6  20F4               	addwfc	prodh,w,c
  2665  0002A8  6EDA               	movwf	fsr2h,c
  2666  0002AA  50DF               	movf	indf2,w,c
  2667  0002AC  6E0B               	movwf	_i_rmb,c
  2668  0002AE  F000               	nop		;# 
  2669                           
  2670                           ;Structure.c: 156: *r_pointer = MailBoxArray[i_rmb].Data;
  2671  0002B0  500B               	movf	_i_rmb,w,c
  2672  0002B2  0D08               	mullw	8
  2673  0002B4  0E03               	movlw	3
  2674  0002B6  26F3               	addwf	prodl,f,c
  2675  0002B8  0E00               	movlw	0
  2676  0002BA  22F4               	addwfc	prodh,f,c
  2677  0002BC  0E60               	movlw	low _MailBoxArray
  2678  0002BE  24F3               	addwf	prodl,w,c
  2679  0002C0  6ED9               	movwf	fsr2l,c
  2680  0002C2  0E00               	movlw	high _MailBoxArray
  2681  0002C4  20F4               	addwfc	prodh,w,c
  2682  0002C6  6EDA               	movwf	fsr2h,c
  2683  0002C8  50DF               	movf	indf2,w,c
  2684  0002CA  0100               	movlb	0	; () banked
  2685  0002CC  6FCC               	movwf	??_ReadingMailBox& (0+255),b
  2686  0002CE  C0CC  F0CD         	movff	??_ReadingMailBox,??_ReadingMailBox+1
  2687  0002D2  0100               	movlb	0	; () banked
  2688  0002D4  6BCE               	clrf	(??_ReadingMailBox+2)& (0+255),b
  2689  0002D6  6BCF               	clrf	(??_ReadingMailBox+3)& (0+255),b
  2690  0002D8  6BD0               	clrf	(??_ReadingMailBox+4)& (0+255),b
  2691  0002DA  C001  FFD9         	movff	_r_pointer,fsr2l
  2692  0002DE  C002  FFDA         	movff	_r_pointer+1,fsr2h
  2693  0002E2  C0CD  FFDE         	movff	??_ReadingMailBox+1,postinc2
  2694  0002E6  C0CE  FFDE         	movff	??_ReadingMailBox+2,postinc2
  2695  0002EA  C0CF  FFDE         	movff	??_ReadingMailBox+3,postinc2
  2696  0002EE  C0D0  FFDE         	movff	??_ReadingMailBox+4,postinc2
  2697                           
  2698                           ; BSR set to: 0
  2699                           ;Structure.c: 158: if( (TaskArray[MailBoxArray[i_rmb].Writer].MessageReader == actualPos
      +                          ition) && TaskArray[ MailBoxArray[ i_rmb ].Writer ].state == 1 && TaskArray[ MailBoxArra
      +                          y[ i_rmb ].Writer].WaitMessage == 1){
  2700  0002F2  500B               	movf	_i_rmb,w,c
  2701  0002F4  0D08               	mullw	8
  2702  0002F6  0E01               	movlw	1
  2703  0002F8  26F3               	addwf	prodl,f,c
  2704  0002FA  0E00               	movlw	0
  2705  0002FC  22F4               	addwfc	prodh,f,c
  2706  0002FE  0E60               	movlw	low _MailBoxArray
  2707  000300  24F3               	addwf	prodl,w,c
  2708  000302  6ED9               	movwf	fsr2l,c
  2709  000304  0E00               	movlw	high _MailBoxArray
  2710  000306  20F4               	addwfc	prodh,w,c
  2711  000308  6EDA               	movwf	fsr2h,c
  2712  00030A  50DF               	movf	indf2,w,c
  2713  00030C  0100               	movlb	0	; () banked
  2714  00030E  6FCC               	movwf	??_ReadingMailBox& (0+255),b
  2715  000310  0100               	movlb	0	; () banked
  2716  000312  51CC               	movf	??_ReadingMailBox& (0+255),w,b
  2717  000314  0D18               	mullw	24
  2718  000316  0E11               	movlw	17
  2719  000318  26F3               	addwf	prodl,f,c
  2720  00031A  0E00               	movlw	0
  2721  00031C  22F4               	addwfc	prodh,f,c
  2722  00031E  0ED4               	movlw	low _TaskArray
  2723  000320  24F3               	addwf	prodl,w,c
  2724  000322  6ED9               	movwf	fsr2l,c
  2725  000324  0E00               	movlw	high _TaskArray
  2726  000326  20F4               	addwfc	prodh,w,c
  2727  000328  6EDA               	movwf	fsr2h,c
  2728  00032A  503A               	movf	_actualPosition,w,c
  2729  00032C  18DE               	xorwf	postinc2,w,c
  2730  00032E  A4D8               	btfss	status,2,c
  2731  000330  D0A7               	goto	l1933
  2732                           
  2733                           ; BSR set to: 0
  2734  000332  500B               	movf	_i_rmb,w,c
  2735  000334  0D08               	mullw	8
  2736  000336  0E01               	movlw	1
  2737  000338  26F3               	addwf	prodl,f,c
  2738  00033A  0E00               	movlw	0
  2739  00033C  22F4               	addwfc	prodh,f,c
  2740  00033E  0E60               	movlw	low _MailBoxArray
  2741  000340  24F3               	addwf	prodl,w,c
  2742  000342  6ED9               	movwf	fsr2l,c
  2743  000344  0E00               	movlw	high _MailBoxArray
  2744  000346  20F4               	addwfc	prodh,w,c
  2745  000348  6EDA               	movwf	fsr2h,c
  2746  00034A  50DF               	movf	indf2,w,c
  2747  00034C  0100               	movlb	0	; () banked
  2748  00034E  6FCC               	movwf	??_ReadingMailBox& (0+255),b
  2749  000350  0100               	movlb	0	; () banked
  2750  000352  51CC               	movf	??_ReadingMailBox& (0+255),w,b
  2751  000354  0D18               	mullw	24
  2752  000356  0E03               	movlw	3
  2753  000358  26F3               	addwf	prodl,f,c
  2754  00035A  0E00               	movlw	0
  2755  00035C  22F4               	addwfc	prodh,f,c
  2756  00035E  0ED4               	movlw	low _TaskArray
  2757  000360  24F3               	addwf	prodl,w,c
  2758  000362  6ED9               	movwf	fsr2l,c
  2759  000364  0E00               	movlw	high _TaskArray
  2760  000366  20F4               	addwfc	prodh,w,c
  2761  000368  6EDA               	movwf	fsr2h,c
  2762  00036A  04DE               	decf	postinc2,w,c
  2763  00036C  A4D8               	btfss	status,2,c
  2764  00036E  D088               	goto	l1933
  2765                           
  2766                           ; BSR set to: 0
  2767  000370  500B               	movf	_i_rmb,w,c
  2768  000372  0D08               	mullw	8
  2769  000374  0E01               	movlw	1
  2770  000376  26F3               	addwf	prodl,f,c
  2771  000378  0E00               	movlw	0
  2772  00037A  22F4               	addwfc	prodh,f,c
  2773  00037C  0E60               	movlw	low _MailBoxArray
  2774  00037E  24F3               	addwf	prodl,w,c
  2775  000380  6ED9               	movwf	fsr2l,c
  2776  000382  0E00               	movlw	high _MailBoxArray
  2777  000384  20F4               	addwfc	prodh,w,c
  2778  000386  6EDA               	movwf	fsr2h,c
  2779  000388  50DF               	movf	indf2,w,c
  2780  00038A  0100               	movlb	0	; () banked
  2781  00038C  6FCC               	movwf	??_ReadingMailBox& (0+255),b
  2782  00038E  0100               	movlb	0	; () banked
  2783  000390  51CC               	movf	??_ReadingMailBox& (0+255),w,b
  2784  000392  0D18               	mullw	24
  2785  000394  0E0F               	movlw	15
  2786  000396  26F3               	addwf	prodl,f,c
  2787  000398  0E00               	movlw	0
  2788  00039A  22F4               	addwfc	prodh,f,c
  2789  00039C  0ED4               	movlw	low _TaskArray
  2790  00039E  24F3               	addwf	prodl,w,c
  2791  0003A0  6ED9               	movwf	fsr2l,c
  2792  0003A2  0E00               	movlw	high _TaskArray
  2793  0003A4  20F4               	addwfc	prodh,w,c
  2794  0003A6  6EDA               	movwf	fsr2h,c
  2795  0003A8  04DE               	decf	postinc2,w,c
  2796  0003AA  A4D8               	btfss	status,2,c
  2797  0003AC  D069               	goto	l1933
  2798                           
  2799                           ; BSR set to: 0
  2800                           ;Structure.c: 159: TaskArray[ MailBoxArray[ i_rmb ].Writer ].state = 2;
  2801  0003AE  500B               	movf	_i_rmb,w,c
  2802  0003B0  0D08               	mullw	8
  2803  0003B2  0E01               	movlw	1
  2804  0003B4  26F3               	addwf	prodl,f,c
  2805  0003B6  0E00               	movlw	0
  2806  0003B8  22F4               	addwfc	prodh,f,c
  2807  0003BA  0E60               	movlw	low _MailBoxArray
  2808  0003BC  24F3               	addwf	prodl,w,c
  2809  0003BE  6ED9               	movwf	fsr2l,c
  2810  0003C0  0E00               	movlw	high _MailBoxArray
  2811  0003C2  20F4               	addwfc	prodh,w,c
  2812  0003C4  6EDA               	movwf	fsr2h,c
  2813  0003C6  50DF               	movf	indf2,w,c
  2814  0003C8  0100               	movlb	0	; () banked
  2815  0003CA  6FCC               	movwf	??_ReadingMailBox& (0+255),b
  2816  0003CC  0100               	movlb	0	; () banked
  2817  0003CE  51CC               	movf	??_ReadingMailBox& (0+255),w,b
  2818  0003D0  0D18               	mullw	24
  2819  0003D2  0E03               	movlw	3
  2820  0003D4  26F3               	addwf	prodl,f,c
  2821  0003D6  0E00               	movlw	0
  2822  0003D8  22F4               	addwfc	prodh,f,c
  2823  0003DA  0ED4               	movlw	low _TaskArray
  2824  0003DC  24F3               	addwf	prodl,w,c
  2825  0003DE  6ED9               	movwf	fsr2l,c
  2826  0003E0  0E00               	movlw	high _TaskArray
  2827  0003E2  20F4               	addwfc	prodh,w,c
  2828  0003E4  6EDA               	movwf	fsr2h,c
  2829  0003E6  0E02               	movlw	2
  2830  0003E8  6EDF               	movwf	indf2,c
  2831                           
  2832                           ;Structure.c: 160: TaskArray[ MailBoxArray[ i_rmb ].Writer].WaitMessage = 0;
  2833  0003EA  500B               	movf	_i_rmb,w,c
  2834  0003EC  0D08               	mullw	8
  2835  0003EE  0E01               	movlw	1
  2836  0003F0  26F3               	addwf	prodl,f,c
  2837  0003F2  0E00               	movlw	0
  2838  0003F4  22F4               	addwfc	prodh,f,c
  2839  0003F6  0E60               	movlw	low _MailBoxArray
  2840  0003F8  24F3               	addwf	prodl,w,c
  2841  0003FA  6ED9               	movwf	fsr2l,c
  2842  0003FC  0E00               	movlw	high _MailBoxArray
  2843  0003FE  20F4               	addwfc	prodh,w,c
  2844  000400  6EDA               	movwf	fsr2h,c
  2845  000402  50DF               	movf	indf2,w,c
  2846  000404  0100               	movlb	0	; () banked
  2847  000406  6FCC               	movwf	??_ReadingMailBox& (0+255),b
  2848  000408  0100               	movlb	0	; () banked
  2849  00040A  51CC               	movf	??_ReadingMailBox& (0+255),w,b
  2850  00040C  0D18               	mullw	24
  2851  00040E  0E0F               	movlw	15
  2852  000410  26F3               	addwf	prodl,f,c
  2853  000412  0E00               	movlw	0
  2854  000414  22F4               	addwfc	prodh,f,c
  2855  000416  0ED4               	movlw	low _TaskArray
  2856  000418  24F3               	addwf	prodl,w,c
  2857  00041A  6ED9               	movwf	fsr2l,c
  2858  00041C  0E00               	movlw	high _TaskArray
  2859  00041E  20F4               	addwfc	prodh,w,c
  2860  000420  6EDA               	movwf	fsr2h,c
  2861  000422  0E00               	movlw	0
  2862  000424  6EDF               	movwf	indf2,c
  2863                           
  2864                           ;Structure.c: 162: TaskArray[actualPosition].currentAdd3=TOSU;
  2865  000426  503A               	movf	_actualPosition,w,c
  2866  000428  0D18               	mullw	24
  2867  00042A  0E08               	movlw	8
  2868  00042C  26F3               	addwf	prodl,f,c
  2869  00042E  0E00               	movlw	0
  2870  000430  22F4               	addwfc	prodh,f,c
  2871  000432  0ED4               	movlw	low _TaskArray
  2872  000434  24F3               	addwf	prodl,w,c
  2873  000436  6ED9               	movwf	fsr2l,c
  2874  000438  0E00               	movlw	high _TaskArray
  2875  00043A  20F4               	addwfc	prodh,w,c
  2876  00043C  6EDA               	movwf	fsr2h,c
  2877  00043E  CFFF FFDF          	movff	tosu,indf2	;volatile
  2878                           
  2879                           ;Structure.c: 163: TaskArray[actualPosition].currentAdd2=TOSH;
  2880  000442  503A               	movf	_actualPosition,w,c
  2881  000444  0D18               	mullw	24
  2882  000446  0E07               	movlw	7
  2883  000448  26F3               	addwf	prodl,f,c
  2884  00044A  0E00               	movlw	0
  2885  00044C  22F4               	addwfc	prodh,f,c
  2886  00044E  0ED4               	movlw	low _TaskArray
  2887  000450  24F3               	addwf	prodl,w,c
  2888  000452  6ED9               	movwf	fsr2l,c
  2889  000454  0E00               	movlw	high _TaskArray
  2890  000456  20F4               	addwfc	prodh,w,c
  2891  000458  6EDA               	movwf	fsr2h,c
  2892  00045A  CFFE FFDF          	movff	tosh,indf2	;volatile
  2893                           
  2894                           ;Structure.c: 164: TaskArray[actualPosition].currentAdd1=TOSL;
  2895  00045E  503A               	movf	_actualPosition,w,c
  2896  000460  0D18               	mullw	24
  2897  000462  0E06               	movlw	6
  2898  000464  26F3               	addwf	prodl,f,c
  2899  000466  0E00               	movlw	0
  2900  000468  22F4               	addwfc	prodh,f,c
  2901  00046A  0ED4               	movlw	low _TaskArray
  2902  00046C  24F3               	addwf	prodl,w,c
  2903  00046E  6ED9               	movwf	fsr2l,c
  2904  000470  0E00               	movlw	high _TaskArray
  2905  000472  20F4               	addwfc	prodh,w,c
  2906  000474  6EDA               	movwf	fsr2h,c
  2907  000476  CFFD FFDF          	movff	tosl,indf2	;volatile
  2908                           
  2909                           ; BSR set to: 0
  2910                           ;Structure.c: 165: STKPTR--;
  2911  00047A  06FC               	decf	stkptr,f,c	;volatile
  2912                           
  2913                           ; BSR set to: 0
  2914                           ;Structure.c: 166: OSRun();
  2915  00047C  ECE8  F003         	call	_OSRun	;wreg free
  2916  000480                     l1933:
  2917  000480  2A0B               	incf	_i_rmb,f,c
  2918  000482  D637               	goto	l1891
  2919  000484                     __end_of_ReadingMailBox:
  2920                           	opt stack 0
  2921                           tosu	equ	0xFFF
  2922                           tosh	equ	0xFFE
  2923                           tosl	equ	0xFFD
  2924                           stkptr	equ	0xFFC
  2925                           tblptru	equ	0xFF8
  2926                           tblptrh	equ	0xFF7
  2927                           tblptrl	equ	0xFF6
  2928                           tablat	equ	0xFF5
  2929                           prodh	equ	0xFF4
  2930                           prodl	equ	0xFF3
  2931                           intcon	equ	0xFF2
  2932                           intcon2	equ	0xFF1
  2933                           intcon3	equ	0xFF0
  2934                           postinc0	equ	0xFEE
  2935                           wreg	equ	0xFE8
  2936                           indf1	equ	0xFE7
  2937                           postdec1	equ	0xFE5
  2938                           fsr1h	equ	0xFE2
  2939                           fsr1l	equ	0xFE1
  2940                           indf2	equ	0xFDF
  2941                           postinc2	equ	0xFDE
  2942                           postdec2	equ	0xFDD
  2943                           fsr2h	equ	0xFDA
  2944                           fsr2l	equ	0xFD9
  2945                           status	equ	0xFD8
  2946                           
  2947 ;; *************** function _waitForBuffer *****************
  2948 ;; Defined at:
  2949 ;;		line 175 in file "Structure.c"
  2950 ;; Parameters:    Size  Location     Type
  2951 ;;		None
  2952 ;; Auto vars:     Size  Location     Type
  2953 ;;		None
  2954 ;; Return value:  Size  Location     Type
  2955 ;;		None               void
  2956 ;; Registers used:
  2957 ;;		wreg, fsr2l, fsr2h, status,2, status,0, prodl, prodh
  2958 ;; Tracked objects:
  2959 ;;		On entry : 0/0
  2960 ;;		On exit  : 0/0
  2961 ;;		Unchanged: 0/0
  2962 ;; Data sizes:     COMRAM   BANK0   BANK1   BANK2   BANK3   BANK4   BANK5   BANK6   BANK7
  2963 ;;      Params:         0       0       0       0       0       0       0       0       0
  2964 ;;      Locals:         0       0       0       0       0       0       0       0       0
  2965 ;;      Temps:          0       0       0       0       0       0       0       0       0
  2966 ;;      Totals:         0       0       0       0       0       0       0       0       0
  2967 ;;Total ram usage:        0 bytes
  2968 ;; Hardware stack levels used:    1
  2969 ;; Hardware stack levels required when called:    4
  2970 ;; This function calls:
  2971 ;;		Nothing
  2972 ;; This function is called by:
  2973 ;;		_WritingMailBox
  2974 ;;		_ReadingMailBox
  2975 ;; This function uses a non-reentrant model
  2976 ;;
  2977                           
  2978                           	psect	text12
  2979  001110                     __ptext12:
  2980                           	opt stack 0
  2981  001110                     _waitForBuffer:
  2982                           	opt stack 24
  2983                           
  2984                           ;Structure.c: 176: GIE = 0;
  2985                           
  2986                           ;incstack = 0
  2987  001110  9EF2               	bcf	intcon,7,c	;volatile
  2988                           
  2989                           ;Structure.c: 177: TaskArray[actualPosition].state = 1;
  2990  001112  503A               	movf	_actualPosition,w,c
  2991  001114  0D18               	mullw	24
  2992  001116  0E03               	movlw	3
  2993  001118  26F3               	addwf	prodl,f,c
  2994  00111A  0E00               	movlw	0
  2995  00111C  22F4               	addwfc	prodh,f,c
  2996  00111E  0ED4               	movlw	low _TaskArray
  2997  001120  24F3               	addwf	prodl,w,c
  2998  001122  6ED9               	movwf	fsr2l,c
  2999  001124  0E00               	movlw	high _TaskArray
  3000  001126  20F4               	addwfc	prodh,w,c
  3001  001128  6EDA               	movwf	fsr2h,c
  3002  00112A  0E01               	movlw	1
  3003  00112C  6EDF               	movwf	indf2,c
  3004                           
  3005                           ;Structure.c: 179: TaskArray[actualPosition].currentAdd3 = TOSU;
  3006  00112E  503A               	movf	_actualPosition,w,c
  3007  001130  0D18               	mullw	24
  3008  001132  0E08               	movlw	8
  3009  001134  26F3               	addwf	prodl,f,c
  3010  001136  0E00               	movlw	0
  3011  001138  22F4               	addwfc	prodh,f,c
  3012  00113A  0ED4               	movlw	low _TaskArray
  3013  00113C  24F3               	addwf	prodl,w,c
  3014  00113E  6ED9               	movwf	fsr2l,c
  3015  001140  0E00               	movlw	high _TaskArray
  3016  001142  20F4               	addwfc	prodh,w,c
  3017  001144  6EDA               	movwf	fsr2h,c
  3018  001146  CFFF FFDF          	movff	tosu,indf2	;volatile
  3019                           
  3020                           ;Structure.c: 180: TaskArray[actualPosition].currentAdd2 = TOSH;
  3021  00114A  503A               	movf	_actualPosition,w,c
  3022  00114C  0D18               	mullw	24
  3023  00114E  0E07               	movlw	7
  3024  001150  26F3               	addwf	prodl,f,c
  3025  001152  0E00               	movlw	0
  3026  001154  22F4               	addwfc	prodh,f,c
  3027  001156  0ED4               	movlw	low _TaskArray
  3028  001158  24F3               	addwf	prodl,w,c
  3029  00115A  6ED9               	movwf	fsr2l,c
  3030  00115C  0E00               	movlw	high _TaskArray
  3031  00115E  20F4               	addwfc	prodh,w,c
  3032  001160  6EDA               	movwf	fsr2h,c
  3033  001162  CFFE FFDF          	movff	tosh,indf2	;volatile
  3034                           
  3035                           ;Structure.c: 181: TaskArray[actualPosition].currentAdd1 = TOSL;
  3036  001166  503A               	movf	_actualPosition,w,c
  3037  001168  0D18               	mullw	24
  3038  00116A  0E06               	movlw	6
  3039  00116C  26F3               	addwf	prodl,f,c
  3040  00116E  0E00               	movlw	0
  3041  001170  22F4               	addwfc	prodh,f,c
  3042  001172  0ED4               	movlw	low _TaskArray
  3043  001174  24F3               	addwf	prodl,w,c
  3044  001176  6ED9               	movwf	fsr2l,c
  3045  001178  0E00               	movlw	high _TaskArray
  3046  00117A  20F4               	addwfc	prodh,w,c
  3047  00117C  6EDA               	movwf	fsr2h,c
  3048  00117E  CFFD FFDF          	movff	tosl,indf2	;volatile
  3049                           
  3050                           ;Structure.c: 182: STKPTR++;
  3051  001182  2AFC               	incf	stkptr,f,c	;volatile
  3052                           
  3053                           ;Structure.c: 183: TOS = &OSRun;
  3054  001184  0ED0               	movlw	low _OSRun
  3055  001186  6EFD               	movwf	tosl,c	;volatile
  3056  001188  0E07               	movlw	high _OSRun
  3057  00118A  6EFE               	movwf	tosh,c	;volatile
  3058  00118C  0E00               	movlw	low (_OSRun shr (0+16))
  3059  00118E  6EFF               	movwf	tosu,c	;volatile
  3060  001190  0012               	return		;funcret
  3061  001192                     __end_of_waitForBuffer:
  3062                           	opt stack 0
  3063                           tosu	equ	0xFFF
  3064                           tosh	equ	0xFFE
  3065                           tosl	equ	0xFFD
  3066                           stkptr	equ	0xFFC
  3067                           tblptru	equ	0xFF8
  3068                           tblptrh	equ	0xFF7
  3069                           tblptrl	equ	0xFF6
  3070                           tablat	equ	0xFF5
  3071                           prodh	equ	0xFF4
  3072                           prodl	equ	0xFF3
  3073                           intcon	equ	0xFF2
  3074                           intcon2	equ	0xFF1
  3075                           intcon3	equ	0xFF0
  3076                           postinc0	equ	0xFEE
  3077                           wreg	equ	0xFE8
  3078                           indf1	equ	0xFE7
  3079                           postdec1	equ	0xFE5
  3080                           fsr1h	equ	0xFE2
  3081                           fsr1l	equ	0xFE1
  3082                           indf2	equ	0xFDF
  3083                           postinc2	equ	0xFDE
  3084                           postdec2	equ	0xFDD
  3085                           fsr2h	equ	0xFDA
  3086                           fsr2l	equ	0xFD9
  3087                           status	equ	0xFD8
  3088                           
  3089 ;; *************** function _OSRun *****************
  3090 ;; Defined at:
  3091 ;;		line 398 in file "Structure.c"
  3092 ;; Parameters:    Size  Location     Type
  3093 ;;		None
  3094 ;; Auto vars:     Size  Location     Type
  3095 ;;		None
  3096 ;; Return value:  Size  Location     Type
  3097 ;;		None               void
  3098 ;; Registers used:
  3099 ;;		wreg, fsr2l, fsr2h, status,2, status,0, prodl, prodh
  3100 ;; Tracked objects:
  3101 ;;		On entry : 0/0
  3102 ;;		On exit  : 0/0
  3103 ;;		Unchanged: 0/0
  3104 ;; Data sizes:     COMRAM   BANK0   BANK1   BANK2   BANK3   BANK4   BANK5   BANK6   BANK7
  3105 ;;      Params:         0       0       0       0       0       0       0       0       0
  3106 ;;      Locals:         0       0       0       0       0       0       0       0       0
  3107 ;;      Temps:          1       0       0       0       0       0       0       0       0
  3108 ;;      Totals:         1       0       0       0       0       0       0       0       0
  3109 ;;Total ram usage:        1 bytes
  3110 ;; Hardware stack levels used:    1
  3111 ;; Hardware stack levels required when called:    4
  3112 ;; This function calls:
  3113 ;;		Nothing
  3114 ;; This function is called by:
  3115 ;;		_WritingMailBox
  3116 ;;		_ReadingMailBox
  3117 ;;		_waitForBuffer
  3118 ;;		_vTaskDelay
  3119 ;;		_reductionTime
  3120 ;;		_xTaskCreate
  3121 ;;		_xInterruptTaskCreate
  3122 ;;		_vTaskDelete
  3123 ;; This function uses a non-reentrant model
  3124 ;;
  3125                           
  3126                           	psect	text13
  3127  0007D0                     __ptext13:
  3128                           	opt stack 0
  3129  0007D0                     _OSRun:
  3130                           	opt stack 25
  3131                           
  3132                           ;Structure.c: 399: INTCONbits.PEIE_GIEL=0;
  3133                           
  3134                           ;incstack = 0
  3135  0007D0  9CF2               	bcf	intcon,6,c	;volatile
  3136                           
  3137                           ;Structure.c: 400: GIE=0;
  3138  0007D2  9EF2               	bcf	intcon,7,c	;volatile
  3139                           
  3140                           ;Structure.c: 401: index = 10;
  3141  0007D4  0E0A               	movlw	10
  3142  0007D6  6E0D               	movwf	_index,c
  3143                           
  3144                           ;Structure.c: 402: minPrior = 255;
  3145  0007D8  6841               	setf	_minPrior,c
  3146                           
  3147                           ;Structure.c: 403: if(schedulerStatus == 1){
  3148  0007DA  0445               	decf	_schedulerStatus,w,c
  3149  0007DC  A4D8               	btfss	status,2,c
  3150  0007DE  0012               	return	
  3151                           
  3152                           ;Structure.c: 404: for(i=0;i<11 ; i++){
  3153  0007E0  0E00               	movlw	0
  3154  0007E2  6E06               	movwf	_i,c
  3155  0007E4                     l1771:
  3156  0007E4  0E0A               	movlw	10
  3157  0007E6  6406               	cpfsgt	_i,c
  3158  0007E8  D001               	goto	l1775
  3159  0007EA  D052               	goto	l1789
  3160  0007EC                     l1775:
  3161                           
  3162                           ;Structure.c: 405: if(TaskArray[i].Priority < minPrior && (TaskArray[i].state==2 || Task
      +                          Array[i].state==4 || TaskArray[i].state==3)){
  3163  0007EC  5006               	movf	_i,w,c
  3164  0007EE  0D18               	mullw	24
  3165  0007F0  0E05               	movlw	5
  3166  0007F2  26F3               	addwf	prodl,f,c
  3167  0007F4  0E00               	movlw	0
  3168  0007F6  22F4               	addwfc	prodh,f,c
  3169  0007F8  0ED4               	movlw	low _TaskArray
  3170  0007FA  24F3               	addwf	prodl,w,c
  3171  0007FC  6ED9               	movwf	fsr2l,c
  3172  0007FE  0E00               	movlw	high _TaskArray
  3173  000800  20F4               	addwfc	prodh,w,c
  3174  000802  6EDA               	movwf	fsr2h,c
  3175  000804  5041               	movf	_minPrior,w,c
  3176  000806  5CDE               	subwf	postinc2,w,c
  3177  000808  B0D8               	btfsc	status,0,c
  3178  00080A  D040               	goto	l1785
  3179  00080C  5006               	movf	_i,w,c
  3180  00080E  0D18               	mullw	24
  3181  000810  0E03               	movlw	3
  3182  000812  26F3               	addwf	prodl,f,c
  3183  000814  0E00               	movlw	0
  3184  000816  22F4               	addwfc	prodh,f,c
  3185  000818  0ED4               	movlw	low _TaskArray
  3186  00081A  24F3               	addwf	prodl,w,c
  3187  00081C  6ED9               	movwf	fsr2l,c
  3188  00081E  0E00               	movlw	high _TaskArray
  3189  000820  20F4               	addwfc	prodh,w,c
  3190  000822  6EDA               	movwf	fsr2h,c
  3191  000824  0E02               	movlw	2
  3192  000826  18DE               	xorwf	postinc2,w,c
  3193  000828  B4D8               	btfsc	status,2,c
  3194  00082A  D020               	goto	l297
  3195  00082C  5006               	movf	_i,w,c
  3196  00082E  0D18               	mullw	24
  3197  000830  0E03               	movlw	3
  3198  000832  26F3               	addwf	prodl,f,c
  3199  000834  0E00               	movlw	0
  3200  000836  22F4               	addwfc	prodh,f,c
  3201  000838  0ED4               	movlw	low _TaskArray
  3202  00083A  24F3               	addwf	prodl,w,c
  3203  00083C  6ED9               	movwf	fsr2l,c
  3204  00083E  0E00               	movlw	high _TaskArray
  3205  000840  20F4               	addwfc	prodh,w,c
  3206  000842  6EDA               	movwf	fsr2h,c
  3207  000844  0E04               	movlw	4
  3208  000846  18DE               	xorwf	postinc2,w,c
  3209  000848  B4D8               	btfsc	status,2,c
  3210  00084A  D010               	goto	l297
  3211  00084C  5006               	movf	_i,w,c
  3212  00084E  0D18               	mullw	24
  3213  000850  0E03               	movlw	3
  3214  000852  26F3               	addwf	prodl,f,c
  3215  000854  0E00               	movlw	0
  3216  000856  22F4               	addwfc	prodh,f,c
  3217  000858  0ED4               	movlw	low _TaskArray
  3218  00085A  24F3               	addwf	prodl,w,c
  3219  00085C  6ED9               	movwf	fsr2l,c
  3220  00085E  0E00               	movlw	high _TaskArray
  3221  000860  20F4               	addwfc	prodh,w,c
  3222  000862  6EDA               	movwf	fsr2h,c
  3223  000864  0E03               	movlw	3
  3224  000866  18DE               	xorwf	postinc2,w,c
  3225  000868  A4D8               	btfss	status,2,c
  3226  00086A  D010               	goto	l1785
  3227  00086C                     l297:
  3228                           
  3229                           ;Structure.c: 407: index=i;
  3230  00086C  C006  F00D         	movff	_i,_index
  3231                           
  3232                           ;Structure.c: 408: minPrior = TaskArray[index].Priority;
  3233  000870  500D               	movf	_index,w,c
  3234  000872  0D18               	mullw	24
  3235  000874  0E05               	movlw	5
  3236  000876  26F3               	addwf	prodl,f,c
  3237  000878  0E00               	movlw	0
  3238  00087A  22F4               	addwfc	prodh,f,c
  3239  00087C  0ED4               	movlw	low _TaskArray
  3240  00087E  24F3               	addwf	prodl,w,c
  3241  000880  6ED9               	movwf	fsr2l,c
  3242  000882  0E00               	movlw	high _TaskArray
  3243  000884  20F4               	addwfc	prodh,w,c
  3244  000886  6EDA               	movwf	fsr2h,c
  3245  000888  50DF               	movf	indf2,w,c
  3246  00088A  6E41               	movwf	_minPrior,c
  3247  00088C                     l1785:
  3248  00088C  2A06               	incf	_i,f,c
  3249  00088E  D7AA               	goto	l1771
  3250  000890                     l1789:
  3251                           
  3252                           ;Structure.c: 409: }
  3253                           ;Structure.c: 410: }
  3254                           ;Structure.c: 417: TaskArray[index].state=4;
  3255  000890  500D               	movf	_index,w,c
  3256  000892  0D18               	mullw	24
  3257  000894  0E03               	movlw	3
  3258  000896  26F3               	addwf	prodl,f,c
  3259  000898  0E00               	movlw	0
  3260  00089A  22F4               	addwfc	prodh,f,c
  3261  00089C  0ED4               	movlw	low _TaskArray
  3262  00089E  24F3               	addwf	prodl,w,c
  3263  0008A0  6ED9               	movwf	fsr2l,c
  3264  0008A2  0E00               	movlw	high _TaskArray
  3265  0008A4  20F4               	addwfc	prodh,w,c
  3266  0008A6  6EDA               	movwf	fsr2h,c
  3267  0008A8  0E04               	movlw	4
  3268  0008AA  6EDF               	movwf	indf2,c
  3269                           
  3270                           ;Structure.c: 419: actualPosition=index;
  3271  0008AC  C00D  F03A         	movff	_index,_actualPosition
  3272                           
  3273                           ;Structure.c: 422: TOSH = TaskArray[index].currentAdd2;
  3274  0008B0  500D               	movf	_index,w,c
  3275  0008B2  0D18               	mullw	24
  3276  0008B4  0E07               	movlw	7
  3277  0008B6  26F3               	addwf	prodl,f,c
  3278  0008B8  0E00               	movlw	0
  3279  0008BA  22F4               	addwfc	prodh,f,c
  3280  0008BC  0ED4               	movlw	low _TaskArray
  3281  0008BE  24F3               	addwf	prodl,w,c
  3282  0008C0  6ED9               	movwf	fsr2l,c
  3283  0008C2  0E00               	movlw	high _TaskArray
  3284  0008C4  20F4               	addwfc	prodh,w,c
  3285  0008C6  6EDA               	movwf	fsr2h,c
  3286  0008C8  50DF               	movf	indf2,w,c
  3287  0008CA  6EFE               	movwf	tosh,c	;volatile
  3288                           
  3289                           ;Structure.c: 423: TOSU = TaskArray[index].currentAdd3;
  3290  0008CC  500D               	movf	_index,w,c
  3291  0008CE  0D18               	mullw	24
  3292  0008D0  0E08               	movlw	8
  3293  0008D2  26F3               	addwf	prodl,f,c
  3294  0008D4  0E00               	movlw	0
  3295  0008D6  22F4               	addwfc	prodh,f,c
  3296  0008D8  0ED4               	movlw	low _TaskArray
  3297  0008DA  24F3               	addwf	prodl,w,c
  3298  0008DC  6ED9               	movwf	fsr2l,c
  3299  0008DE  0E00               	movlw	high _TaskArray
  3300  0008E0  20F4               	addwfc	prodh,w,c
  3301  0008E2  6EDA               	movwf	fsr2h,c
  3302  0008E4  50DF               	movf	indf2,w,c
  3303  0008E6  6EFF               	movwf	tosu,c	;volatile
  3304                           
  3305                           ;Structure.c: 424: TOSL = TaskArray[index].currentAdd1;
  3306  0008E8  500D               	movf	_index,w,c
  3307  0008EA  0D18               	mullw	24
  3308  0008EC  0E06               	movlw	6
  3309  0008EE  26F3               	addwf	prodl,f,c
  3310  0008F0  0E00               	movlw	0
  3311  0008F2  22F4               	addwfc	prodh,f,c
  3312  0008F4  0ED4               	movlw	low _TaskArray
  3313  0008F6  24F3               	addwf	prodl,w,c
  3314  0008F8  6ED9               	movwf	fsr2l,c
  3315  0008FA  0E00               	movlw	high _TaskArray
  3316  0008FC  20F4               	addwfc	prodh,w,c
  3317  0008FE  6EDA               	movwf	fsr2h,c
  3318  000900  50DF               	movf	indf2,w,c
  3319  000902  6EFD               	movwf	tosl,c	;volatile
  3320                           
  3321                           ;Structure.c: 426: if(TaskArray[index].state==3){
  3322  000904  500D               	movf	_index,w,c
  3323  000906  0D18               	mullw	24
  3324  000908  0E03               	movlw	3
  3325  00090A  26F3               	addwf	prodl,f,c
  3326  00090C  0E00               	movlw	0
  3327  00090E  22F4               	addwfc	prodh,f,c
  3328  000910  0ED4               	movlw	low _TaskArray
  3329  000912  24F3               	addwf	prodl,w,c
  3330  000914  6ED9               	movwf	fsr2l,c
  3331  000916  0E00               	movlw	high _TaskArray
  3332  000918  20F4               	addwfc	prodh,w,c
  3333  00091A  6EDA               	movwf	fsr2h,c
  3334  00091C  0E03               	movlw	3
  3335  00091E  18DE               	xorwf	postinc2,w,c
  3336  000920  A4D8               	btfss	status,2,c
  3337  000922  D02B               	goto	l1795
  3338                           
  3339                           ;Structure.c: 427: STATUS = TaskArray[index].backupStatus;
  3340  000924  500D               	movf	_index,w,c
  3341  000926  0D18               	mullw	24
  3342  000928  0E09               	movlw	9
  3343  00092A  26F3               	addwf	prodl,f,c
  3344  00092C  0E00               	movlw	0
  3345  00092E  22F4               	addwfc	prodh,f,c
  3346  000930  0ED4               	movlw	low _TaskArray
  3347  000932  24F3               	addwf	prodl,w,c
  3348  000934  6ED9               	movwf	fsr2l,c
  3349  000936  0E00               	movlw	high _TaskArray
  3350  000938  20F4               	addwfc	prodh,w,c
  3351  00093A  6EDA               	movwf	fsr2h,c
  3352  00093C  50DF               	movf	indf2,w,c
  3353  00093E  6ED8               	movwf	status,c	;volatile
  3354                           
  3355                           ;Structure.c: 428: BSR = TaskArray[index].backupBsr;
  3356  000940  500D               	movf	_index,w,c
  3357  000942  0D18               	mullw	24
  3358  000944  0E0B               	movlw	11
  3359  000946  26F3               	addwf	prodl,f,c
  3360  000948  0E00               	movlw	0
  3361  00094A  22F4               	addwfc	prodh,f,c
  3362  00094C  0ED4               	movlw	low _TaskArray
  3363  00094E  24F3               	addwf	prodl,w,c
  3364  000950  6ED9               	movwf	fsr2l,c
  3365  000952  0E00               	movlw	high _TaskArray
  3366  000954  20F4               	addwfc	prodh,w,c
  3367  000956  6EDA               	movwf	fsr2h,c
  3368  000958  50DF               	movf	indf2,w,c
  3369  00095A  6EE0               	movwf	bsr,c	;volatile
  3370                           
  3371                           ;Structure.c: 429: WREG = TaskArray[index].backupWreg;
  3372  00095C  500D               	movf	_index,w,c
  3373  00095E  0D18               	mullw	24
  3374  000960  0E0A               	movlw	10
  3375  000962  26F3               	addwf	prodl,f,c
  3376  000964  0E00               	movlw	0
  3377  000966  22F4               	addwfc	prodh,f,c
  3378  000968  0ED4               	movlw	low _TaskArray
  3379  00096A  24F3               	addwf	prodl,w,c
  3380  00096C  6ED9               	movwf	fsr2l,c
  3381  00096E  0E00               	movlw	high _TaskArray
  3382  000970  20F4               	addwfc	prodh,w,c
  3383  000972  6EDA               	movwf	fsr2h,c
  3384  000974  50DF               	movf	indf2,w,c
  3385  000976  6E34               	movwf	??_OSRun& (0+255),c
  3386  000978  5034               	movf	??_OSRun,w,c
  3387  00097A                     l1795:
  3388                           
  3389                           ;Structure.c: 430: }
  3390                           ;Structure.c: 431: INTCONbits.PEIE_GIEL=1;
  3391  00097A  8CF2               	bsf	intcon,6,c	;volatile
  3392                           
  3393                           ;Structure.c: 432: GIE = 1;
  3394  00097C  8EF2               	bsf	intcon,7,c	;volatile
  3395  00097E  0012               	return	
  3396  000980                     __end_of_OSRun:
  3397                           	opt stack 0
  3398                           tosu	equ	0xFFF
  3399                           tosh	equ	0xFFE
  3400                           tosl	equ	0xFFD
  3401                           stkptr	equ	0xFFC
  3402                           tblptru	equ	0xFF8
  3403                           tblptrh	equ	0xFF7
  3404                           tblptrl	equ	0xFF6
  3405                           tablat	equ	0xFF5
  3406                           prodh	equ	0xFF4
  3407                           prodl	equ	0xFF3
  3408                           intcon	equ	0xFF2
  3409                           intcon2	equ	0xFF1
  3410                           intcon3	equ	0xFF0
  3411                           postinc0	equ	0xFEE
  3412                           wreg	equ	0xFE8
  3413                           indf1	equ	0xFE7
  3414                           postdec1	equ	0xFE5
  3415                           fsr1h	equ	0xFE2
  3416                           fsr1l	equ	0xFE1
  3417                           bsr	equ	0xFE0
  3418                           indf2	equ	0xFDF
  3419                           postinc2	equ	0xFDE
  3420                           postdec2	equ	0xFDD
  3421                           fsr2h	equ	0xFDA
  3422                           fsr2l	equ	0xFD9
  3423                           status	equ	0xFD8
  3424                           
  3425 ;; *************** function _OSInit *****************
  3426 ;; Defined at:
  3427 ;;		line 343 in file "Structure.c"
  3428 ;; Parameters:    Size  Location     Type
  3429 ;;		None
  3430 ;; Auto vars:     Size  Location     Type
  3431 ;;		None
  3432 ;; Return value:  Size  Location     Type
  3433 ;;		None               void
  3434 ;; Registers used:
  3435 ;;		wreg, fsr2l, fsr2h, status,2, status,0, prodl, prodh
  3436 ;; Tracked objects:
  3437 ;;		On entry : 0/0
  3438 ;;		On exit  : 0/0
  3439 ;;		Unchanged: 0/0
  3440 ;; Data sizes:     COMRAM   BANK0   BANK1   BANK2   BANK3   BANK4   BANK5   BANK6   BANK7
  3441 ;;      Params:         0       0       0       0       0       0       0       0       0
  3442 ;;      Locals:         0       0       0       0       0       0       0       0       0
  3443 ;;      Temps:          0       0       0       0       0       0       0       0       0
  3444 ;;      Totals:         0       0       0       0       0       0       0       0       0
  3445 ;;Total ram usage:        0 bytes
  3446 ;; Hardware stack levels used:    1
  3447 ;; Hardware stack levels required when called:    4
  3448 ;; This function calls:
  3449 ;;		Nothing
  3450 ;; This function is called by:
  3451 ;;		_main
  3452 ;; This function uses a non-reentrant model
  3453 ;;
  3454                           
  3455                           	psect	text14
  3456  000BE0                     __ptext14:
  3457                           	opt stack 0
  3458  000BE0                     _OSInit:
  3459                           	opt stack 26
  3460                           
  3461                           ;Structure.c: 344: INTCONbits.PEIE_GIEL=0;
  3462                           
  3463                           ;incstack = 0
  3464  000BE0  9CF2               	bcf	intcon,6,c	;volatile
  3465                           
  3466                           ;Structure.c: 345: GIE=0;
  3467  000BE2  9EF2               	bcf	intcon,7,c	;volatile
  3468                           
  3469                           ;Structure.c: 346: for(i=0;i<11 ; i++){
  3470  000BE4  0E00               	movlw	0
  3471  000BE6  6E06               	movwf	_i,c
  3472  000BE8                     l1619:
  3473  000BE8  0E0A               	movlw	10
  3474  000BEA  6406               	cpfsgt	_i,c
  3475  000BEC  D001               	goto	l1623
  3476  000BEE  D048               	goto	l288
  3477  000BF0                     l1623:
  3478                           
  3479                           ;Structure.c: 347: TaskArray[i].Priority=255;
  3480  000BF0  5006               	movf	_i,w,c
  3481  000BF2  0D18               	mullw	24
  3482  000BF4  0E05               	movlw	5
  3483  000BF6  26F3               	addwf	prodl,f,c
  3484  000BF8  0E00               	movlw	0
  3485  000BFA  22F4               	addwfc	prodh,f,c
  3486  000BFC  0ED4               	movlw	low _TaskArray
  3487  000BFE  24F3               	addwf	prodl,w,c
  3488  000C00  6ED9               	movwf	fsr2l,c
  3489  000C02  0E00               	movlw	high _TaskArray
  3490  000C04  20F4               	addwfc	prodh,w,c
  3491  000C06  6EDA               	movwf	fsr2h,c
  3492  000C08  0EFF               	movlw	255
  3493  000C0A  6EDF               	movwf	indf2,c
  3494                           
  3495                           ;Structure.c: 348: TaskArray[i].Id=i;
  3496  000C0C  5006               	movf	_i,w,c
  3497  000C0E  0D18               	mullw	24
  3498  000C10  0E04               	movlw	4
  3499  000C12  26F3               	addwf	prodl,f,c
  3500  000C14  0E00               	movlw	0
  3501  000C16  22F4               	addwfc	prodh,f,c
  3502  000C18  0ED4               	movlw	low _TaskArray
  3503  000C1A  24F3               	addwf	prodl,w,c
  3504  000C1C  6ED9               	movwf	fsr2l,c
  3505  000C1E  0E00               	movlw	high _TaskArray
  3506  000C20  20F4               	addwfc	prodh,w,c
  3507  000C22  6EDA               	movwf	fsr2h,c
  3508  000C24  C006  FFDF         	movff	_i,indf2
  3509                           
  3510                           ;Structure.c: 349: TaskArray[i].state=0;
  3511  000C28  5006               	movf	_i,w,c
  3512  000C2A  0D18               	mullw	24
  3513  000C2C  0E03               	movlw	3
  3514  000C2E  26F3               	addwf	prodl,f,c
  3515  000C30  0E00               	movlw	0
  3516  000C32  22F4               	addwfc	prodh,f,c
  3517  000C34  0ED4               	movlw	low _TaskArray
  3518  000C36  24F3               	addwf	prodl,w,c
  3519  000C38  6ED9               	movwf	fsr2l,c
  3520  000C3A  0E00               	movlw	high _TaskArray
  3521  000C3C  20F4               	addwfc	prodh,w,c
  3522  000C3E  6EDA               	movwf	fsr2h,c
  3523  000C40  0E00               	movlw	0
  3524  000C42  6EDF               	movwf	indf2,c
  3525                           
  3526                           ;Structure.c: 350: MailBoxArray[i].Available=0;
  3527  000C44  5006               	movf	_i,w,c
  3528  000C46  0D08               	mullw	8
  3529  000C48  0E02               	movlw	2
  3530  000C4A  26F3               	addwf	prodl,f,c
  3531  000C4C  0E00               	movlw	0
  3532  000C4E  22F4               	addwfc	prodh,f,c
  3533  000C50  0E60               	movlw	low _MailBoxArray
  3534  000C52  24F3               	addwf	prodl,w,c
  3535  000C54  6ED9               	movwf	fsr2l,c
  3536  000C56  0E00               	movlw	high _MailBoxArray
  3537  000C58  20F4               	addwfc	prodh,w,c
  3538  000C5A  6EDA               	movwf	fsr2h,c
  3539  000C5C  0E00               	movlw	0
  3540  000C5E  6EDF               	movwf	indf2,c
  3541                           
  3542                           ;Structure.c: 351: MailBoxArray[i].Connected=0;
  3543  000C60  5006               	movf	_i,w,c
  3544  000C62  0D08               	mullw	8
  3545  000C64  0E06               	movlw	6
  3546  000C66  26F3               	addwf	prodl,f,c
  3547  000C68  0E00               	movlw	0
  3548  000C6A  22F4               	addwfc	prodh,f,c
  3549  000C6C  0E60               	movlw	low _MailBoxArray
  3550  000C6E  24F3               	addwf	prodl,w,c
  3551  000C70  6ED9               	movwf	fsr2l,c
  3552  000C72  0E00               	movlw	high _MailBoxArray
  3553  000C74  20F4               	addwfc	prodh,w,c
  3554  000C76  6EDA               	movwf	fsr2h,c
  3555  000C78  0E00               	movlw	0
  3556  000C7A  6EDF               	movwf	indf2,c
  3557  000C7C  2A06               	incf	_i,f,c
  3558  000C7E  D7B4               	goto	l1619
  3559  000C80                     l288:
  3560                           
  3561                           ;Structure.c: 352: }
  3562                           ;Structure.c: 354: OSCCONbits.IDLEN=0;
  3563  000C80  9ED3               	bcf	4051,7,c	;volatile
  3564                           
  3565                           ;Structure.c: 355: OSCCONbits.IRCF2=1;
  3566  000C82  8CD3               	bsf	4051,6,c	;volatile
  3567                           
  3568                           ;Structure.c: 356: OSCCONbits.IRCF1=1;
  3569  000C84  8AD3               	bsf	4051,5,c	;volatile
  3570                           
  3571                           ;Structure.c: 357: OSCCONbits.IRCF0=1;
  3572  000C86  88D3               	bsf	4051,4,c	;volatile
  3573                           
  3574                           ;Structure.c: 358: OSCCONbits.OSTS=0;
  3575  000C88  96D3               	bcf	4051,3,c	;volatile
  3576                           
  3577                           ;Structure.c: 359: OSCCONbits.IOFS=1;
  3578  000C8A  84D3               	bsf	4051,2,c	;volatile
  3579                           
  3580                           ;Structure.c: 360: OSCCONbits.SCS1=1;
  3581  000C8C  82D3               	bsf	4051,1,c	;volatile
  3582                           
  3583                           ;Structure.c: 361: OSCCONbits.SCS0=1;
  3584  000C8E  80D3               	bsf	4051,0,c	;volatile
  3585                           
  3586                           ;Structure.c: 375: T1CON = 0;
  3587  000C90  0E00               	movlw	0
  3588  000C92  6ECD               	movwf	4045,c	;volatile
  3589                           
  3590                           ;Structure.c: 376: T1CONbits.RD16=1;
  3591  000C94  8ECD               	bsf	4045,7,c	;volatile
  3592                           
  3593                           ;Structure.c: 377: T1CONbits.T1RUN=0;
  3594  000C96  9CCD               	bcf	4045,6,c	;volatile
  3595                           
  3596                           ;Structure.c: 378: T1CONbits.T1CKPS1= 0;
  3597  000C98  9ACD               	bcf	4045,5,c	;volatile
  3598                           
  3599                           ;Structure.c: 379: T1CONbits.T1CKPS0= 0;
  3600  000C9A  98CD               	bcf	4045,4,c	;volatile
  3601                           
  3602                           ;Structure.c: 380: T1CONbits.T1OSCEN=0;
  3603  000C9C  96CD               	bcf	4045,3,c	;volatile
  3604                           
  3605                           ;Structure.c: 381: T1CONbits.T1SYNC=1;
  3606  000C9E  84CD               	bsf	4045,2,c	;volatile
  3607                           
  3608                           ;Structure.c: 382: T1CONbits.TMR1CS=0;
  3609  000CA0  92CD               	bcf	4045,1,c	;volatile
  3610                           
  3611                           ;Structure.c: 384: TMR1H = 0xFA;
  3612  000CA2  0EFA               	movlw	250
  3613  000CA4  6ECF               	movwf	4047,c	;volatile
  3614                           
  3615                           ;Structure.c: 385: TMR1L = 0x00;
  3616  000CA6  0E00               	movlw	0
  3617  000CA8  6ECE               	movwf	4046,c	;volatile
  3618                           
  3619                           ;Structure.c: 391: PIR1bits.TMR1IF = 0;
  3620  000CAA  909E               	bcf	3998,0,c	;volatile
  3621                           
  3622                           ;Structure.c: 392: PIE1bits.TMR1IE = 1;
  3623  000CAC  809D               	bsf	3997,0,c	;volatile
  3624  000CAE  0012               	return		;funcret
  3625  000CB0                     __end_of_OSInit:
  3626                           	opt stack 0
  3627                           tosu	equ	0xFFF
  3628                           tosh	equ	0xFFE
  3629                           tosl	equ	0xFFD
  3630                           stkptr	equ	0xFFC
  3631                           tblptru	equ	0xFF8
  3632                           tblptrh	equ	0xFF7
  3633                           tblptrl	equ	0xFF6
  3634                           tablat	equ	0xFF5
  3635                           prodh	equ	0xFF4
  3636                           prodl	equ	0xFF3
  3637                           intcon	equ	0xFF2
  3638                           intcon2	equ	0xFF1
  3639                           intcon3	equ	0xFF0
  3640                           postinc0	equ	0xFEE
  3641                           wreg	equ	0xFE8
  3642                           indf1	equ	0xFE7
  3643                           postdec1	equ	0xFE5
  3644                           fsr1h	equ	0xFE2
  3645                           fsr1l	equ	0xFE1
  3646                           bsr	equ	0xFE0
  3647                           indf2	equ	0xFDF
  3648                           postinc2	equ	0xFDE
  3649                           postdec2	equ	0xFDD
  3650                           fsr2h	equ	0xFDA
  3651                           fsr2l	equ	0xFD9
  3652                           status	equ	0xFD8
  3653                           
  3654 ;; *************** function _Low_Priority_Interrupt *****************
  3655 ;; Defined at:
  3656 ;;		line 160 in file "main.c"
  3657 ;; Parameters:    Size  Location     Type
  3658 ;;		None
  3659 ;; Auto vars:     Size  Location     Type
  3660 ;;		None
  3661 ;; Return value:  Size  Location     Type
  3662 ;;		None               void
  3663 ;; Registers used:
  3664 ;;		wreg, fsr2l, fsr2h, status,2, status,0, prodl, prodh, cstack
  3665 ;; Tracked objects:
  3666 ;;		On entry : 0/0
  3667 ;;		On exit  : 0/0
  3668 ;;		Unchanged: 0/0
  3669 ;; Data sizes:     COMRAM   BANK0   BANK1   BANK2   BANK3   BANK4   BANK5   BANK6   BANK7
  3670 ;;      Params:         0       0       0       0       0       0       0       0       0
  3671 ;;      Locals:         0       0       0       0       0       0       0       0       0
  3672 ;;      Temps:         17       0       0       0       0       0       0       0       0
  3673 ;;      Totals:        17       0       0       0       0       0       0       0       0
  3674 ;;Total ram usage:       17 bytes
  3675 ;; Hardware stack levels used:    1
  3676 ;; Hardware stack levels required when called:    3
  3677 ;; This function calls:
  3678 ;;		_saveInterruptedState
  3679 ;;		_xInterruptTaskCreate
  3680 ;; This function is called by:
  3681 ;;		Interrupt level 1
  3682 ;; This function uses a non-reentrant model
  3683 ;;
  3684                           
  3685                           	psect	intcodelo
  3686  000018                     __pintcodelo:
  3687                           	opt stack 0
  3688  000018                     _Low_Priority_Interrupt:
  3689                           	opt stack 24
  3690                           
  3691                           ;incstack = 0
  3692  000018  8046               	bsf	btemp,0,c	;set compiler interrupt flag (level 1)
  3693  00001A  CFD8 F021          	movff	status,??_Low_Priority_Interrupt
  3694  00001E  CFE8 F022          	movff	wreg,??_Low_Priority_Interrupt+1
  3695  000022  CFE0 F023          	movff	bsr,??_Low_Priority_Interrupt+2
  3696  000026  CFFA F024          	movff	pclath,??_Low_Priority_Interrupt+3
  3697  00002A  CFFB F025          	movff	pclatu,??_Low_Priority_Interrupt+4
  3698  00002E  CFE9 F026          	movff	fsr0l,??_Low_Priority_Interrupt+5
  3699  000032  CFEA F027          	movff	fsr0h,??_Low_Priority_Interrupt+6
  3700  000036  CFE1 F028          	movff	fsr1l,??_Low_Priority_Interrupt+7
  3701  00003A  CFE2 F029          	movff	fsr1h,??_Low_Priority_Interrupt+8
  3702  00003E  CFD9 F02A          	movff	fsr2l,??_Low_Priority_Interrupt+9
  3703  000042  CFDA F02B          	movff	fsr2h,??_Low_Priority_Interrupt+10
  3704  000046  CFF3 F02C          	movff	prodl,??_Low_Priority_Interrupt+11
  3705  00004A  CFF4 F02D          	movff	prodh,??_Low_Priority_Interrupt+12
  3706  00004E  CFF6 F02E          	movff	tblptrl,??_Low_Priority_Interrupt+13
  3707  000052  CFF7 F02F          	movff	tblptrh,??_Low_Priority_Interrupt+14
  3708  000056  CFF8 F030          	movff	tblptru,??_Low_Priority_Interrupt+15
  3709  00005A  CFF5 F031          	movff	tablat,??_Low_Priority_Interrupt+16
  3710                           
  3711                           ;main.c: 161: saveInterruptedState();
  3712  00005E  EC58  F006         	call	_saveInterruptedState	;wreg free
  3713                           
  3714                           ;main.c: 163: if(INT1IE && INT1IF){
  3715  000062  B6F0               	btfsc	intcon3,3,c	;volatile
  3716  000064  A0F0               	btfss	intcon3,0,c	;volatile
  3717  000066  D010               	goto	i1l2047
  3718                           
  3719                           ;main.c: 165: INT1IF = 0;
  3720  000068  90F0               	bcf	intcon3,0,c	;volatile
  3721                           
  3722                           ;main.c: 166: INT1IE = 0;
  3723  00006A  96F0               	bcf	intcon3,3,c	;volatile
  3724                           
  3725                           ;main.c: 168: xInterruptTaskCreate(RX1,1,1);
  3726  00006C  0E12               	movlw	low _RX1
  3727  00006E  6E1B               	movwf	xInterruptTaskCreate@pvTaskCode,c
  3728  000070  0E12               	movlw	high _RX1
  3729  000072  6E1C               	movwf	xInterruptTaskCreate@pvTaskCode+1,c
  3730  000074  0E00               	movlw	low (_RX1 shr (0+16))
  3731  000076  6E1D               	movwf	xInterruptTaskCreate@pvTaskCode+2,c
  3732  000078  0E00               	movlw	high (_RX1 shr (0+16))
  3733  00007A  6E1E               	movwf	xInterruptTaskCreate@pvTaskCode+3,c
  3734  00007C  0E01               	movlw	1
  3735  00007E  6E1F               	movwf	xInterruptTaskCreate@Id,c
  3736  000080  0E01               	movlw	1
  3737  000082  6E20               	movwf	xInterruptTaskCreate@Prior,c
  3738  000084  EC6C  F005         	call	_xInterruptTaskCreate	;wreg free
  3739  000088                     i1l2047:
  3740                           
  3741                           ;main.c: 169: }
  3742                           ;main.c: 171: if(INT2IE && INT2IF){
  3743  000088  B8F0               	btfsc	intcon3,4,c	;volatile
  3744  00008A  A2F0               	btfss	intcon3,1,c	;volatile
  3745  00008C  D003               	goto	i1l120
  3746                           
  3747                           ;main.c: 172: INT2IF = 0;
  3748  00008E  92F0               	bcf	intcon3,1,c	;volatile
  3749                           
  3750                           ;main.c: 173: INT2IE = 0;
  3751  000090  98F0               	bcf	intcon3,4,c	;volatile
  3752  000092  F000               	nop		;# 
  3753  000094                     i1l120:
  3754  000094  C031  FFF5         	movff	??_Low_Priority_Interrupt+16,tablat
  3755  000098  C030  FFF8         	movff	??_Low_Priority_Interrupt+15,tblptru
  3756  00009C  C02F  FFF7         	movff	??_Low_Priority_Interrupt+14,tblptrh
  3757  0000A0  C02E  FFF6         	movff	??_Low_Priority_Interrupt+13,tblptrl
  3758  0000A4  C02D  FFF4         	movff	??_Low_Priority_Interrupt+12,prodh
  3759  0000A8  C02C  FFF3         	movff	??_Low_Priority_Interrupt+11,prodl
  3760  0000AC  C02B  FFDA         	movff	??_Low_Priority_Interrupt+10,fsr2h
  3761  0000B0  C02A  FFD9         	movff	??_Low_Priority_Interrupt+9,fsr2l
  3762  0000B4  C029  FFE2         	movff	??_Low_Priority_Interrupt+8,fsr1h
  3763  0000B8  C028  FFE1         	movff	??_Low_Priority_Interrupt+7,fsr1l
  3764  0000BC  C027  FFEA         	movff	??_Low_Priority_Interrupt+6,fsr0h
  3765  0000C0  C026  FFE9         	movff	??_Low_Priority_Interrupt+5,fsr0l
  3766  0000C4  C025  FFFB         	movff	??_Low_Priority_Interrupt+4,pclatu
  3767  0000C8  C024  FFFA         	movff	??_Low_Priority_Interrupt+3,pclath
  3768  0000CC  C023  FFE0         	movff	??_Low_Priority_Interrupt+2,bsr
  3769  0000D0  C022  FFE8         	movff	??_Low_Priority_Interrupt+1,wreg
  3770  0000D4  C021  FFD8         	movff	??_Low_Priority_Interrupt,status
  3771  0000D8  9046               	bcf	btemp,0,c	;clear compiler interrupt flag (level 1)
  3772  0000DA  0010               	retfie	
  3773  0000DC                     __end_of_Low_Priority_Interrupt:
  3774                           	opt stack 0
  3775                           tosu	equ	0xFFF
  3776                           tosh	equ	0xFFE
  3777                           tosl	equ	0xFFD
  3778                           stkptr	equ	0xFFC
  3779                           pclatu	equ	0xFFB
  3780                           pclath	equ	0xFFA
  3781                           tblptru	equ	0xFF8
  3782                           tblptrh	equ	0xFF7
  3783                           tblptrl	equ	0xFF6
  3784                           tablat	equ	0xFF5
  3785                           prodh	equ	0xFF4
  3786                           prodl	equ	0xFF3
  3787                           intcon	equ	0xFF2
  3788                           intcon2	equ	0xFF1
  3789                           intcon3	equ	0xFF0
  3790                           postinc0	equ	0xFEE
  3791                           fsr0h	equ	0xFEA
  3792                           fsr0l	equ	0xFE9
  3793                           wreg	equ	0xFE8
  3794                           indf1	equ	0xFE7
  3795                           postdec1	equ	0xFE5
  3796                           fsr1h	equ	0xFE2
  3797                           fsr1l	equ	0xFE1
  3798                           bsr	equ	0xFE0
  3799                           indf2	equ	0xFDF
  3800                           postinc2	equ	0xFDE
  3801                           postdec2	equ	0xFDD
  3802                           fsr2h	equ	0xFDA
  3803                           fsr2l	equ	0xFD9
  3804                           status	equ	0xFD8
  3805                           
  3806 ;; *************** function _xInterruptTaskCreate *****************
  3807 ;; Defined at:
  3808 ;;		line 296 in file "Structure.c"
  3809 ;; Parameters:    Size  Location     Type
  3810 ;;  pvTaskCode      4    0[COMRAM] unsigned long 
  3811 ;;  Id              1    4[COMRAM] unsigned char 
  3812 ;;  Prior           1    5[COMRAM] unsigned char 
  3813 ;; Auto vars:     Size  Location     Type
  3814 ;;		None
  3815 ;; Return value:  Size  Location     Type
  3816 ;;		None               void
  3817 ;; Registers used:
  3818 ;;		wreg, fsr2l, fsr2h, status,2, status,0, prodl, prodh
  3819 ;; Tracked objects:
  3820 ;;		On entry : 0/0
  3821 ;;		On exit  : 0/0
  3822 ;;		Unchanged: 0/0
  3823 ;; Data sizes:     COMRAM   BANK0   BANK1   BANK2   BANK3   BANK4   BANK5   BANK6   BANK7
  3824 ;;      Params:         6       0       0       0       0       0       0       0       0
  3825 ;;      Locals:         0       0       0       0       0       0       0       0       0
  3826 ;;      Temps:          0       0       0       0       0       0       0       0       0
  3827 ;;      Totals:         6       0       0       0       0       0       0       0       0
  3828 ;;Total ram usage:        6 bytes
  3829 ;; Hardware stack levels used:    1
  3830 ;; Hardware stack levels required when called:    2
  3831 ;; This function calls:
  3832 ;;		Nothing
  3833 ;; This function is called by:
  3834 ;;		_Low_Priority_Interrupt
  3835 ;; This function uses a non-reentrant model
  3836 ;;
  3837                           
  3838                           	psect	text16
  3839  000AD8                     __ptext16:
  3840                           	opt stack 0
  3841  000AD8                     _xInterruptTaskCreate:
  3842                           	opt stack 24
  3843                           
  3844                           ;Structure.c: 297: INTCONbits.PEIE_GIEL=0;
  3845                           
  3846                           ;incstack = 0
  3847  000AD8  9CF2               	bcf	intcon,6,c	;volatile
  3848                           
  3849                           ;Structure.c: 298: GIE=0;
  3850  000ADA  9EF2               	bcf	intcon,7,c	;volatile
  3851                           
  3852                           ;Structure.c: 307: TaskArray[Id].Id=Id;
  3853  000ADC  501F               	movf	xInterruptTaskCreate@Id,w,c
  3854  000ADE  0D18               	mullw	24
  3855  000AE0  0E04               	movlw	4
  3856  000AE2  26F3               	addwf	prodl,f,c
  3857  000AE4  0E00               	movlw	0
  3858  000AE6  22F4               	addwfc	prodh,f,c
  3859  000AE8  0ED4               	movlw	low _TaskArray
  3860  000AEA  24F3               	addwf	prodl,w,c
  3861  000AEC  6ED9               	movwf	fsr2l,c
  3862  000AEE  0E00               	movlw	high _TaskArray
  3863  000AF0  20F4               	addwfc	prodh,w,c
  3864  000AF2  6EDA               	movwf	fsr2h,c
  3865  000AF4  C01F  FFDF         	movff	xInterruptTaskCreate@Id,indf2
  3866                           
  3867                           ;Structure.c: 308: TaskArray[Id].state=2;
  3868  000AF8  501F               	movf	xInterruptTaskCreate@Id,w,c
  3869  000AFA  0D18               	mullw	24
  3870  000AFC  0E03               	movlw	3
  3871  000AFE  26F3               	addwf	prodl,f,c
  3872  000B00  0E00               	movlw	0
  3873  000B02  22F4               	addwfc	prodh,f,c
  3874  000B04  0ED4               	movlw	low _TaskArray
  3875  000B06  24F3               	addwf	prodl,w,c
  3876  000B08  6ED9               	movwf	fsr2l,c
  3877  000B0A  0E00               	movlw	high _TaskArray
  3878  000B0C  20F4               	addwfc	prodh,w,c
  3879  000B0E  6EDA               	movwf	fsr2h,c
  3880  000B10  0E02               	movlw	2
  3881  000B12  6EDF               	movwf	indf2,c
  3882                           
  3883                           ;Structure.c: 309: TaskArray[Id].Add3=(pvTaskCode & 0x00ff0000) >> 16;
  3884  000B14  501F               	movf	xInterruptTaskCreate@Id,w,c
  3885  000B16  0D18               	mullw	24
  3886  000B18  0E02               	movlw	2
  3887  000B1A  26F3               	addwf	prodl,f,c
  3888  000B1C  0E00               	movlw	0
  3889  000B1E  22F4               	addwfc	prodh,f,c
  3890  000B20  0ED4               	movlw	low _TaskArray
  3891  000B22  24F3               	addwf	prodl,w,c
  3892  000B24  6ED9               	movwf	fsr2l,c
  3893  000B26  0E00               	movlw	high _TaskArray
  3894  000B28  20F4               	addwfc	prodh,w,c
  3895  000B2A  6EDA               	movwf	fsr2h,c
  3896  000B2C  C01D  FFDF         	movff	xInterruptTaskCreate@pvTaskCode+2,indf2
  3897                           
  3898                           ;Structure.c: 310: TaskArray[Id].Add2=(pvTaskCode & 0x0000ff00) >> 8;
  3899  000B30  501F               	movf	xInterruptTaskCreate@Id,w,c
  3900  000B32  0D18               	mullw	24
  3901  000B34  0E01               	movlw	1
  3902  000B36  26F3               	addwf	prodl,f,c
  3903  000B38  0E00               	movlw	0
  3904  000B3A  22F4               	addwfc	prodh,f,c
  3905  000B3C  0ED4               	movlw	low _TaskArray
  3906  000B3E  24F3               	addwf	prodl,w,c
  3907  000B40  6ED9               	movwf	fsr2l,c
  3908  000B42  0E00               	movlw	high _TaskArray
  3909  000B44  20F4               	addwfc	prodh,w,c
  3910  000B46  6EDA               	movwf	fsr2h,c
  3911  000B48  C01C  FFDF         	movff	xInterruptTaskCreate@pvTaskCode+1,indf2
  3912                           
  3913                           ;Structure.c: 311: TaskArray[Id].Add1=(pvTaskCode & 0x000000ff);
  3914  000B4C  501F               	movf	xInterruptTaskCreate@Id,w,c
  3915  000B4E  0D18               	mullw	24
  3916  000B50  0ED4               	movlw	low _TaskArray
  3917  000B52  24F3               	addwf	prodl,w,c
  3918  000B54  6ED9               	movwf	fsr2l,c
  3919  000B56  0E00               	movlw	high _TaskArray
  3920  000B58  20F4               	addwfc	prodh,w,c
  3921  000B5A  6EDA               	movwf	fsr2h,c
  3922  000B5C  C01B  FFDF         	movff	xInterruptTaskCreate@pvTaskCode,indf2
  3923                           
  3924                           ;Structure.c: 312: TaskArray[Id].currentAdd3=(pvTaskCode & 0x00ff0000) >> 16;
  3925  000B60  501F               	movf	xInterruptTaskCreate@Id,w,c
  3926  000B62  0D18               	mullw	24
  3927  000B64  0E08               	movlw	8
  3928  000B66  26F3               	addwf	prodl,f,c
  3929  000B68  0E00               	movlw	0
  3930  000B6A  22F4               	addwfc	prodh,f,c
  3931  000B6C  0ED4               	movlw	low _TaskArray
  3932  000B6E  24F3               	addwf	prodl,w,c
  3933  000B70  6ED9               	movwf	fsr2l,c
  3934  000B72  0E00               	movlw	high _TaskArray
  3935  000B74  20F4               	addwfc	prodh,w,c
  3936  000B76  6EDA               	movwf	fsr2h,c
  3937  000B78  C01D  FFDF         	movff	xInterruptTaskCreate@pvTaskCode+2,indf2
  3938                           
  3939                           ;Structure.c: 313: TaskArray[Id].currentAdd2=(pvTaskCode & 0x0000ff00) >> 8;
  3940  000B7C  501F               	movf	xInterruptTaskCreate@Id,w,c
  3941  000B7E  0D18               	mullw	24
  3942  000B80  0E07               	movlw	7
  3943  000B82  26F3               	addwf	prodl,f,c
  3944  000B84  0E00               	movlw	0
  3945  000B86  22F4               	addwfc	prodh,f,c
  3946  000B88  0ED4               	movlw	low _TaskArray
  3947  000B8A  24F3               	addwf	prodl,w,c
  3948  000B8C  6ED9               	movwf	fsr2l,c
  3949  000B8E  0E00               	movlw	high _TaskArray
  3950  000B90  20F4               	addwfc	prodh,w,c
  3951  000B92  6EDA               	movwf	fsr2h,c
  3952  000B94  C01C  FFDF         	movff	xInterruptTaskCreate@pvTaskCode+1,indf2
  3953                           
  3954                           ;Structure.c: 314: TaskArray[Id].currentAdd1=(pvTaskCode & 0x000000ff);
  3955  000B98  501F               	movf	xInterruptTaskCreate@Id,w,c
  3956  000B9A  0D18               	mullw	24
  3957  000B9C  0E06               	movlw	6
  3958  000B9E  26F3               	addwf	prodl,f,c
  3959  000BA0  0E00               	movlw	0
  3960  000BA2  22F4               	addwfc	prodh,f,c
  3961  000BA4  0ED4               	movlw	low _TaskArray
  3962  000BA6  24F3               	addwf	prodl,w,c
  3963  000BA8  6ED9               	movwf	fsr2l,c
  3964  000BAA  0E00               	movlw	high _TaskArray
  3965  000BAC  20F4               	addwfc	prodh,w,c
  3966  000BAE  6EDA               	movwf	fsr2h,c
  3967  000BB0  C01B  FFDF         	movff	xInterruptTaskCreate@pvTaskCode,indf2
  3968                           
  3969                           ;Structure.c: 315: TaskArray[Id].Priority=Prior;
  3970  000BB4  501F               	movf	xInterruptTaskCreate@Id,w,c
  3971  000BB6  0D18               	mullw	24
  3972  000BB8  0E05               	movlw	5
  3973  000BBA  26F3               	addwf	prodl,f,c
  3974  000BBC  0E00               	movlw	0
  3975  000BBE  22F4               	addwfc	prodh,f,c
  3976  000BC0  0ED4               	movlw	low _TaskArray
  3977  000BC2  24F3               	addwf	prodl,w,c
  3978  000BC4  6ED9               	movwf	fsr2l,c
  3979  000BC6  0E00               	movlw	high _TaskArray
  3980  000BC8  20F4               	addwfc	prodh,w,c
  3981  000BCA  6EDA               	movwf	fsr2h,c
  3982  000BCC  C020  FFDF         	movff	xInterruptTaskCreate@Prior,indf2
  3983                           
  3984                           ;Structure.c: 322: TOS = &OSRun;
  3985  000BD0  0ED0               	movlw	low _OSRun
  3986  000BD2  6EFD               	movwf	tosl,c	;volatile
  3987  000BD4  0E07               	movlw	high _OSRun
  3988  000BD6  6EFE               	movwf	tosh,c	;volatile
  3989  000BD8  0E00               	movlw	low (_OSRun shr (0+16))
  3990  000BDA  6EFF               	movwf	tosu,c	;volatile
  3991  000BDC  0010               	retfie		;# 
  3992  000BDE  0012               	return		;funcret
  3993  000BE0                     __end_of_xInterruptTaskCreate:
  3994                           	opt stack 0
  3995                           tosu	equ	0xFFF
  3996                           tosh	equ	0xFFE
  3997                           tosl	equ	0xFFD
  3998                           stkptr	equ	0xFFC
  3999                           pclatu	equ	0xFFB
  4000                           pclath	equ	0xFFA
  4001                           tblptru	equ	0xFF8
  4002                           tblptrh	equ	0xFF7
  4003                           tblptrl	equ	0xFF6
  4004                           tablat	equ	0xFF5
  4005                           prodh	equ	0xFF4
  4006                           prodl	equ	0xFF3
  4007                           intcon	equ	0xFF2
  4008                           intcon2	equ	0xFF1
  4009                           intcon3	equ	0xFF0
  4010                           postinc0	equ	0xFEE
  4011                           fsr0h	equ	0xFEA
  4012                           fsr0l	equ	0xFE9
  4013                           wreg	equ	0xFE8
  4014                           indf1	equ	0xFE7
  4015                           postdec1	equ	0xFE5
  4016                           fsr1h	equ	0xFE2
  4017                           fsr1l	equ	0xFE1
  4018                           bsr	equ	0xFE0
  4019                           indf2	equ	0xFDF
  4020                           postinc2	equ	0xFDE
  4021                           postdec2	equ	0xFDD
  4022                           fsr2h	equ	0xFDA
  4023                           fsr2l	equ	0xFD9
  4024                           status	equ	0xFD8
  4025                           
  4026 ;; *************** function _saveInterruptedState *****************
  4027 ;; Defined at:
  4028 ;;		line 252 in file "Structure.c"
  4029 ;; Parameters:    Size  Location     Type
  4030 ;;		None
  4031 ;; Auto vars:     Size  Location     Type
  4032 ;;		None
  4033 ;; Return value:  Size  Location     Type
  4034 ;;                  2   32[None  ] int 
  4035 ;; Registers used:
  4036 ;;		wreg, fsr2l, fsr2h, status,2, status,0, prodl, prodh
  4037 ;; Tracked objects:
  4038 ;;		On entry : 0/0
  4039 ;;		On exit  : 0/0
  4040 ;;		Unchanged: 0/0
  4041 ;; Data sizes:     COMRAM   BANK0   BANK1   BANK2   BANK3   BANK4   BANK5   BANK6   BANK7
  4042 ;;      Params:         0       0       0       0       0       0       0       0       0
  4043 ;;      Locals:         0       0       0       0       0       0       0       0       0
  4044 ;;      Temps:          0       0       0       0       0       0       0       0       0
  4045 ;;      Totals:         0       0       0       0       0       0       0       0       0
  4046 ;;Total ram usage:        0 bytes
  4047 ;; Hardware stack levels used:    1
  4048 ;; Hardware stack levels required when called:    2
  4049 ;; This function calls:
  4050 ;;		Nothing
  4051 ;; This function is called by:
  4052 ;;		_Low_Priority_Interrupt
  4053 ;; This function uses a non-reentrant model
  4054 ;;
  4055                           
  4056                           	psect	text17
  4057  000CB0                     __ptext17:
  4058                           	opt stack 0
  4059  000CB0                     _saveInterruptedState:
  4060                           	opt stack 24
  4061                           
  4062                           ;Structure.c: 257: TaskArray[actualPosition].backupWreg = s_WREGBackup;
  4063                           
  4064                           ;incstack = 0
  4065  000CB0  503A               	movf	_actualPosition,w,c
  4066  000CB2  0D18               	mullw	24
  4067  000CB4  0E0A               	movlw	10
  4068  000CB6  26F3               	addwf	prodl,f,c
  4069  000CB8  0E00               	movlw	0
  4070  000CBA  22F4               	addwfc	prodh,f,c
  4071  000CBC  0ED4               	movlw	low _TaskArray
  4072  000CBE  24F3               	addwf	prodl,w,c
  4073  000CC0  6ED9               	movwf	fsr2l,c
  4074  000CC2  0E00               	movlw	high _TaskArray
  4075  000CC4  20F4               	addwfc	prodh,w,c
  4076  000CC6  6EDA               	movwf	fsr2h,c
  4077  000CC8  C037  FFDF         	movff	Structure@s_WREGBackup,indf2
  4078                           
  4079                           ;Structure.c: 258: TaskArray[actualPosition].backupStatus = s_STATUSBackup;
  4080  000CCC  503A               	movf	_actualPosition,w,c
  4081  000CCE  0D18               	mullw	24
  4082  000CD0  0E09               	movlw	9
  4083  000CD2  26F3               	addwf	prodl,f,c
  4084  000CD4  0E00               	movlw	0
  4085  000CD6  22F4               	addwfc	prodh,f,c
  4086  000CD8  0ED4               	movlw	low _TaskArray
  4087  000CDA  24F3               	addwf	prodl,w,c
  4088  000CDC  6ED9               	movwf	fsr2l,c
  4089  000CDE  0E00               	movlw	high _TaskArray
  4090  000CE0  20F4               	addwfc	prodh,w,c
  4091  000CE2  6EDA               	movwf	fsr2h,c
  4092  000CE4  C036  FFDF         	movff	Structure@s_STATUSBackup,indf2
  4093                           
  4094                           ;Structure.c: 259: TaskArray[actualPosition].backupBsr = s_BSRBackup;
  4095  000CE8  503A               	movf	_actualPosition,w,c
  4096  000CEA  0D18               	mullw	24
  4097  000CEC  0E0B               	movlw	11
  4098  000CEE  26F3               	addwf	prodl,f,c
  4099  000CF0  0E00               	movlw	0
  4100  000CF2  22F4               	addwfc	prodh,f,c
  4101  000CF4  0ED4               	movlw	low _TaskArray
  4102  000CF6  24F3               	addwf	prodl,w,c
  4103  000CF8  6ED9               	movwf	fsr2l,c
  4104  000CFA  0E00               	movlw	high _TaskArray
  4105  000CFC  20F4               	addwfc	prodh,w,c
  4106  000CFE  6EDA               	movwf	fsr2h,c
  4107  000D00  C035  FFDF         	movff	Structure@s_BSRBackup,indf2
  4108                           
  4109                           ;Structure.c: 262: TaskArray[actualPosition].state = 3;
  4110  000D04  503A               	movf	_actualPosition,w,c
  4111  000D06  0D18               	mullw	24
  4112  000D08  0E03               	movlw	3
  4113  000D0A  26F3               	addwf	prodl,f,c
  4114  000D0C  0E00               	movlw	0
  4115  000D0E  22F4               	addwfc	prodh,f,c
  4116  000D10  0ED4               	movlw	low _TaskArray
  4117  000D12  24F3               	addwf	prodl,w,c
  4118  000D14  6ED9               	movwf	fsr2l,c
  4119  000D16  0E00               	movlw	high _TaskArray
  4120  000D18  20F4               	addwfc	prodh,w,c
  4121  000D1A  6EDA               	movwf	fsr2h,c
  4122  000D1C  0E03               	movlw	3
  4123  000D1E  6EDF               	movwf	indf2,c
  4124                           
  4125                           ;Structure.c: 263: STKPTR--;
  4126  000D20  06FC               	decf	stkptr,f,c	;volatile
  4127                           
  4128                           ;Structure.c: 264: TaskArray[actualPosition].currentAdd3 = TOSU;
  4129  000D22  503A               	movf	_actualPosition,w,c
  4130  000D24  0D18               	mullw	24
  4131  000D26  0E08               	movlw	8
  4132  000D28  26F3               	addwf	prodl,f,c
  4133  000D2A  0E00               	movlw	0
  4134  000D2C  22F4               	addwfc	prodh,f,c
  4135  000D2E  0ED4               	movlw	low _TaskArray
  4136  000D30  24F3               	addwf	prodl,w,c
  4137  000D32  6ED9               	movwf	fsr2l,c
  4138  000D34  0E00               	movlw	high _TaskArray
  4139  000D36  20F4               	addwfc	prodh,w,c
  4140  000D38  6EDA               	movwf	fsr2h,c
  4141  000D3A  CFFF FFDF          	movff	tosu,indf2	;volatile
  4142                           
  4143                           ;Structure.c: 265: TaskArray[actualPosition].currentAdd2 = TOSH;
  4144  000D3E  503A               	movf	_actualPosition,w,c
  4145  000D40  0D18               	mullw	24
  4146  000D42  0E07               	movlw	7
  4147  000D44  26F3               	addwf	prodl,f,c
  4148  000D46  0E00               	movlw	0
  4149  000D48  22F4               	addwfc	prodh,f,c
  4150  000D4A  0ED4               	movlw	low _TaskArray
  4151  000D4C  24F3               	addwf	prodl,w,c
  4152  000D4E  6ED9               	movwf	fsr2l,c
  4153  000D50  0E00               	movlw	high _TaskArray
  4154  000D52  20F4               	addwfc	prodh,w,c
  4155  000D54  6EDA               	movwf	fsr2h,c
  4156  000D56  CFFE FFDF          	movff	tosh,indf2	;volatile
  4157                           
  4158                           ;Structure.c: 266: TaskArray[actualPosition].currentAdd1 = TOSL;
  4159  000D5A  503A               	movf	_actualPosition,w,c
  4160  000D5C  0D18               	mullw	24
  4161  000D5E  0E06               	movlw	6
  4162  000D60  26F3               	addwf	prodl,f,c
  4163  000D62  0E00               	movlw	0
  4164  000D64  22F4               	addwfc	prodh,f,c
  4165  000D66  0ED4               	movlw	low _TaskArray
  4166  000D68  24F3               	addwf	prodl,w,c
  4167  000D6A  6ED9               	movwf	fsr2l,c
  4168  000D6C  0E00               	movlw	high _TaskArray
  4169  000D6E  20F4               	addwfc	prodh,w,c
  4170  000D70  6EDA               	movwf	fsr2h,c
  4171  000D72  CFFD FFDF          	movff	tosl,indf2	;volatile
  4172                           
  4173                           ;Structure.c: 267: STKPTR++;
  4174  000D76  2AFC               	incf	stkptr,f,c	;volatile
  4175  000D78  0012               	return		;funcret
  4176  000D7A                     __end_of_saveInterruptedState:
  4177                           	opt stack 0
  4178                           tosu	equ	0xFFF
  4179                           tosh	equ	0xFFE
  4180                           tosl	equ	0xFFD
  4181                           stkptr	equ	0xFFC
  4182                           pclatu	equ	0xFFB
  4183                           pclath	equ	0xFFA
  4184                           tblptru	equ	0xFF8
  4185                           tblptrh	equ	0xFF7
  4186                           tblptrl	equ	0xFF6
  4187                           tablat	equ	0xFF5
  4188                           prodh	equ	0xFF4
  4189                           prodl	equ	0xFF3
  4190                           intcon	equ	0xFF2
  4191                           intcon2	equ	0xFF1
  4192                           intcon3	equ	0xFF0
  4193                           postinc0	equ	0xFEE
  4194                           fsr0h	equ	0xFEA
  4195                           fsr0l	equ	0xFE9
  4196                           wreg	equ	0xFE8
  4197                           indf1	equ	0xFE7
  4198                           postdec1	equ	0xFE5
  4199                           fsr1h	equ	0xFE2
  4200                           fsr1l	equ	0xFE1
  4201                           bsr	equ	0xFE0
  4202                           indf2	equ	0xFDF
  4203                           postinc2	equ	0xFDE
  4204                           postdec2	equ	0xFDD
  4205                           fsr2h	equ	0xFDA
  4206                           fsr2l	equ	0xFD9
  4207                           status	equ	0xFD8
  4208                           
  4209 ;; *************** function _High_Priority_Interrupt *****************
  4210 ;; Defined at:
  4211 ;;		line 149 in file "main.c"
  4212 ;; Parameters:    Size  Location     Type
  4213 ;;		None
  4214 ;; Auto vars:     Size  Location     Type
  4215 ;;		None
  4216 ;; Return value:  Size  Location     Type
  4217 ;;		None               void
  4218 ;; Registers used:
  4219 ;;		wreg, fsr2l, fsr2h, status,2, status,0, prodl, prodh, cstack
  4220 ;; Tracked objects:
  4221 ;;		On entry : 0/0
  4222 ;;		On exit  : 0/0
  4223 ;;		Unchanged: 0/0
  4224 ;; Data sizes:     COMRAM   BANK0   BANK1   BANK2   BANK3   BANK4   BANK5   BANK6   BANK7
  4225 ;;      Params:         0       0       0       0       0       0       0       0       0
  4226 ;;      Locals:         0       0       0       0       0       0       0       0       0
  4227 ;;      Temps:          0      14       0       0       0       0       0       0       0
  4228 ;;      Totals:         0      14       0       0       0       0       0       0       0
  4229 ;;Total ram usage:       14 bytes
  4230 ;; Hardware stack levels used:    1
  4231 ;; Hardware stack levels required when called:    1
  4232 ;; This function calls:
  4233 ;;		_reductionTime
  4234 ;;		i2_saveInterruptedState
  4235 ;; This function is called by:
  4236 ;;		Interrupt level 2
  4237 ;; This function uses a non-reentrant model
  4238 ;;
  4239                           
  4240                           	psect	intcode
  4241  000008                     __pintcode:
  4242                           	opt stack 0
  4243  000008                     _High_Priority_Interrupt:
  4244                           	opt stack 24
  4245                           
  4246                           ;incstack = 0
  4247  000008  8246               	bsf	btemp,1,c	;set compiler interrupt flag (level 2)
  4248  00000A  CFFA F0BC          	movff	pclath,??_High_Priority_Interrupt
  4249  00000E  CFFB F0BD          	movff	pclatu,??_High_Priority_Interrupt+1
  4250  000012  ED45  F008         	call	int_func,f	;refresh shadow registers
  4251                           tosu	equ	0xFFF
  4252                           tosh	equ	0xFFE
  4253                           tosl	equ	0xFFD
  4254                           stkptr	equ	0xFFC
  4255                           pclatu	equ	0xFFB
  4256                           pclath	equ	0xFFA
  4257                           tblptru	equ	0xFF8
  4258                           tblptrh	equ	0xFF7
  4259                           tblptrl	equ	0xFF6
  4260                           tablat	equ	0xFF5
  4261                           prodh	equ	0xFF4
  4262                           prodl	equ	0xFF3
  4263                           intcon	equ	0xFF2
  4264                           intcon2	equ	0xFF1
  4265                           intcon3	equ	0xFF0
  4266                           postinc0	equ	0xFEE
  4267                           fsr0h	equ	0xFEA
  4268                           fsr0l	equ	0xFE9
  4269                           wreg	equ	0xFE8
  4270                           indf1	equ	0xFE7
  4271                           postdec1	equ	0xFE5
  4272                           fsr1h	equ	0xFE2
  4273                           fsr1l	equ	0xFE1
  4274                           bsr	equ	0xFE0
  4275                           indf2	equ	0xFDF
  4276                           postinc2	equ	0xFDE
  4277                           postdec2	equ	0xFDD
  4278                           fsr2h	equ	0xFDA
  4279                           fsr2l	equ	0xFD9
  4280                           status	equ	0xFD8
  4281                           
  4282                           	psect	intcode_body
  4283  00108A                     __pintcode_body:
  4284                           	opt stack 24
  4285  00108A                     int_func:
  4286                           	opt stack 24
  4287  00108A  0006               	pop		; remove dummy address from shadow register refresh
  4288  00108C  CFE9 F0BE          	movff	fsr0l,??_High_Priority_Interrupt+2
  4289  001090  CFEA F0BF          	movff	fsr0h,??_High_Priority_Interrupt+3
  4290  001094  CFE1 F0C0          	movff	fsr1l,??_High_Priority_Interrupt+4
  4291  001098  CFE2 F0C1          	movff	fsr1h,??_High_Priority_Interrupt+5
  4292  00109C  CFD9 F0C2          	movff	fsr2l,??_High_Priority_Interrupt+6
  4293  0010A0  CFDA F0C3          	movff	fsr2h,??_High_Priority_Interrupt+7
  4294  0010A4  CFF3 F0C4          	movff	prodl,??_High_Priority_Interrupt+8
  4295  0010A8  CFF4 F0C5          	movff	prodh,??_High_Priority_Interrupt+9
  4296  0010AC  CFF6 F0C6          	movff	tblptrl,??_High_Priority_Interrupt+10
  4297  0010B0  CFF7 F0C7          	movff	tblptrh,??_High_Priority_Interrupt+11
  4298  0010B4  CFF8 F0C8          	movff	tblptru,??_High_Priority_Interrupt+12
  4299  0010B8  CFF5 F0C9          	movff	tablat,??_High_Priority_Interrupt+13
  4300                           
  4301                           ;main.c: 150: saveInterruptedState();
  4302  0010BC  ECBD  F006         	call	i2_saveInterruptedState	;wreg free
  4303                           
  4304                           ;main.c: 151: if(TMR1IE && TMR1IF){
  4305  0010C0  B09D               	btfsc	3997,0,c	;volatile
  4306  0010C2  A09E               	btfss	3998,0,c	;volatile
  4307  0010C4  D007               	goto	i2l115
  4308                           
  4309                           ;main.c: 152: TMR1IF=0;
  4310  0010C6  909E               	bcf	3998,0,c	;volatile
  4311                           
  4312                           ;main.c: 153: TMR1H = 0xFA;
  4313  0010C8  0EFA               	movlw	250
  4314  0010CA  6ECF               	movwf	4047,c	;volatile
  4315                           
  4316                           ;main.c: 154: TMR1L = 0x00;
  4317  0010CC  0E00               	movlw	0
  4318  0010CE  6ECE               	movwf	4046,c	;volatile
  4319                           
  4320                           ;main.c: 155: reductionTime();
  4321  0010D0  EC86  F007         	call	_reductionTime	;wreg free
  4322  0010D4                     i2l115:
  4323  0010D4  C0C9  FFF5         	movff	??_High_Priority_Interrupt+13,tablat
  4324  0010D8  C0C8  FFF8         	movff	??_High_Priority_Interrupt+12,tblptru
  4325  0010DC  C0C7  FFF7         	movff	??_High_Priority_Interrupt+11,tblptrh
  4326  0010E0  C0C6  FFF6         	movff	??_High_Priority_Interrupt+10,tblptrl
  4327  0010E4  C0C5  FFF4         	movff	??_High_Priority_Interrupt+9,prodh
  4328  0010E8  C0C4  FFF3         	movff	??_High_Priority_Interrupt+8,prodl
  4329  0010EC  C0C3  FFDA         	movff	??_High_Priority_Interrupt+7,fsr2h
  4330  0010F0  C0C2  FFD9         	movff	??_High_Priority_Interrupt+6,fsr2l
  4331  0010F4  C0C1  FFE2         	movff	??_High_Priority_Interrupt+5,fsr1h
  4332  0010F8  C0C0  FFE1         	movff	??_High_Priority_Interrupt+4,fsr1l
  4333  0010FC  C0BF  FFEA         	movff	??_High_Priority_Interrupt+3,fsr0h
  4334  001100  C0BE  FFE9         	movff	??_High_Priority_Interrupt+2,fsr0l
  4335  001104  C0BD  FFFB         	movff	??_High_Priority_Interrupt+1,pclatu
  4336  001108  C0BC  FFFA         	movff	??_High_Priority_Interrupt,pclath
  4337  00110C  9246               	bcf	btemp,1,c	;clear compiler interrupt flag (level 2)
  4338  00110E  0011               	retfie		f
  4339  001110                     __end_of_High_Priority_Interrupt:
  4340                           	opt stack 0
  4341                           tosu	equ	0xFFF
  4342                           tosh	equ	0xFFE
  4343                           tosl	equ	0xFFD
  4344                           stkptr	equ	0xFFC
  4345                           pclatu	equ	0xFFB
  4346                           pclath	equ	0xFFA
  4347                           tblptru	equ	0xFF8
  4348                           tblptrh	equ	0xFF7
  4349                           tblptrl	equ	0xFF6
  4350                           tablat	equ	0xFF5
  4351                           prodh	equ	0xFF4
  4352                           prodl	equ	0xFF3
  4353                           intcon	equ	0xFF2
  4354                           intcon2	equ	0xFF1
  4355                           intcon3	equ	0xFF0
  4356                           postinc0	equ	0xFEE
  4357                           fsr0h	equ	0xFEA
  4358                           fsr0l	equ	0xFE9
  4359                           wreg	equ	0xFE8
  4360                           indf1	equ	0xFE7
  4361                           postdec1	equ	0xFE5
  4362                           fsr1h	equ	0xFE2
  4363                           fsr1l	equ	0xFE1
  4364                           bsr	equ	0xFE0
  4365                           indf2	equ	0xFDF
  4366                           postinc2	equ	0xFDE
  4367                           postdec2	equ	0xFDD
  4368                           fsr2h	equ	0xFDA
  4369                           fsr2l	equ	0xFD9
  4370                           status	equ	0xFD8
  4371                           
  4372 ;; *************** function i2_saveInterruptedState *****************
  4373 ;; Defined at:
  4374 ;;		line 252 in file "Structure.c"
  4375 ;; Parameters:    Size  Location     Type
  4376 ;;		None
  4377 ;; Auto vars:     Size  Location     Type
  4378 ;;		None
  4379 ;; Return value:  Size  Location     Type
  4380 ;;                  2    0[None  ] int 
  4381 ;; Registers used:
  4382 ;;		wreg, fsr2l, fsr2h, status,2, status,0, prodl, prodh
  4383 ;; Tracked objects:
  4384 ;;		On entry : 0/0
  4385 ;;		On exit  : 0/0
  4386 ;;		Unchanged: 0/0
  4387 ;; Data sizes:     COMRAM   BANK0   BANK1   BANK2   BANK3   BANK4   BANK5   BANK6   BANK7
  4388 ;;      Params:         0       0       0       0       0       0       0       0       0
  4389 ;;      Locals:         0       0       0       0       0       0       0       0       0
  4390 ;;      Temps:          0       0       0       0       0       0       0       0       0
  4391 ;;      Totals:         0       0       0       0       0       0       0       0       0
  4392 ;;Total ram usage:        0 bytes
  4393 ;; Hardware stack levels used:    1
  4394 ;; This function calls:
  4395 ;;		Nothing
  4396 ;; This function is called by:
  4397 ;;		_High_Priority_Interrupt
  4398 ;; This function uses a non-reentrant model
  4399 ;;
  4400                           
  4401                           	psect	text19
  4402  000D7A                     __ptext19:
  4403                           	opt stack 0
  4404  000D7A                     i2_saveInterruptedState:
  4405                           	opt stack 24
  4406                           
  4407                           ;Structure.c: 257: TaskArray[actualPosition].backupWreg = s_WREGBackup;
  4408                           
  4409                           ;incstack = 0
  4410  000D7A  503A               	movf	_actualPosition,w,c
  4411  000D7C  0D18               	mullw	24
  4412  000D7E  0E0A               	movlw	10
  4413  000D80  26F3               	addwf	prodl,f,c
  4414  000D82  0E00               	movlw	0
  4415  000D84  22F4               	addwfc	prodh,f,c
  4416  000D86  0ED4               	movlw	low _TaskArray
  4417  000D88  24F3               	addwf	prodl,w,c
  4418  000D8A  6ED9               	movwf	fsr2l,c
  4419  000D8C  0E00               	movlw	high _TaskArray
  4420  000D8E  20F4               	addwfc	prodh,w,c
  4421  000D90  6EDA               	movwf	fsr2h,c
  4422  000D92  C037  FFDF         	movff	Structure@s_WREGBackup,indf2
  4423                           
  4424                           ;Structure.c: 258: TaskArray[actualPosition].backupStatus = s_STATUSBackup;
  4425  000D96  503A               	movf	_actualPosition,w,c
  4426  000D98  0D18               	mullw	24
  4427  000D9A  0E09               	movlw	9
  4428  000D9C  26F3               	addwf	prodl,f,c
  4429  000D9E  0E00               	movlw	0
  4430  000DA0  22F4               	addwfc	prodh,f,c
  4431  000DA2  0ED4               	movlw	low _TaskArray
  4432  000DA4  24F3               	addwf	prodl,w,c
  4433  000DA6  6ED9               	movwf	fsr2l,c
  4434  000DA8  0E00               	movlw	high _TaskArray
  4435  000DAA  20F4               	addwfc	prodh,w,c
  4436  000DAC  6EDA               	movwf	fsr2h,c
  4437  000DAE  C036  FFDF         	movff	Structure@s_STATUSBackup,indf2
  4438                           
  4439                           ;Structure.c: 259: TaskArray[actualPosition].backupBsr = s_BSRBackup;
  4440  000DB2  503A               	movf	_actualPosition,w,c
  4441  000DB4  0D18               	mullw	24
  4442  000DB6  0E0B               	movlw	11
  4443  000DB8  26F3               	addwf	prodl,f,c
  4444  000DBA  0E00               	movlw	0
  4445  000DBC  22F4               	addwfc	prodh,f,c
  4446  000DBE  0ED4               	movlw	low _TaskArray
  4447  000DC0  24F3               	addwf	prodl,w,c
  4448  000DC2  6ED9               	movwf	fsr2l,c
  4449  000DC4  0E00               	movlw	high _TaskArray
  4450  000DC6  20F4               	addwfc	prodh,w,c
  4451  000DC8  6EDA               	movwf	fsr2h,c
  4452  000DCA  C035  FFDF         	movff	Structure@s_BSRBackup,indf2
  4453                           
  4454                           ;Structure.c: 262: TaskArray[actualPosition].state = 3;
  4455  000DCE  503A               	movf	_actualPosition,w,c
  4456  000DD0  0D18               	mullw	24
  4457  000DD2  0E03               	movlw	3
  4458  000DD4  26F3               	addwf	prodl,f,c
  4459  000DD6  0E00               	movlw	0
  4460  000DD8  22F4               	addwfc	prodh,f,c
  4461  000DDA  0ED4               	movlw	low _TaskArray
  4462  000DDC  24F3               	addwf	prodl,w,c
  4463  000DDE  6ED9               	movwf	fsr2l,c
  4464  000DE0  0E00               	movlw	high _TaskArray
  4465  000DE2  20F4               	addwfc	prodh,w,c
  4466  000DE4  6EDA               	movwf	fsr2h,c
  4467  000DE6  0E03               	movlw	3
  4468  000DE8  6EDF               	movwf	indf2,c
  4469                           
  4470                           ;Structure.c: 263: STKPTR--;
  4471  000DEA  06FC               	decf	stkptr,f,c	;volatile
  4472                           
  4473                           ;Structure.c: 264: TaskArray[actualPosition].currentAdd3 = TOSU;
  4474  000DEC  503A               	movf	_actualPosition,w,c
  4475  000DEE  0D18               	mullw	24
  4476  000DF0  0E08               	movlw	8
  4477  000DF2  26F3               	addwf	prodl,f,c
  4478  000DF4  0E00               	movlw	0
  4479  000DF6  22F4               	addwfc	prodh,f,c
  4480  000DF8  0ED4               	movlw	low _TaskArray
  4481  000DFA  24F3               	addwf	prodl,w,c
  4482  000DFC  6ED9               	movwf	fsr2l,c
  4483  000DFE  0E00               	movlw	high _TaskArray
  4484  000E00  20F4               	addwfc	prodh,w,c
  4485  000E02  6EDA               	movwf	fsr2h,c
  4486  000E04  CFFF FFDF          	movff	tosu,indf2	;volatile
  4487                           
  4488                           ;Structure.c: 265: TaskArray[actualPosition].currentAdd2 = TOSH;
  4489  000E08  503A               	movf	_actualPosition,w,c
  4490  000E0A  0D18               	mullw	24
  4491  000E0C  0E07               	movlw	7
  4492  000E0E  26F3               	addwf	prodl,f,c
  4493  000E10  0E00               	movlw	0
  4494  000E12  22F4               	addwfc	prodh,f,c
  4495  000E14  0ED4               	movlw	low _TaskArray
  4496  000E16  24F3               	addwf	prodl,w,c
  4497  000E18  6ED9               	movwf	fsr2l,c
  4498  000E1A  0E00               	movlw	high _TaskArray
  4499  000E1C  20F4               	addwfc	prodh,w,c
  4500  000E1E  6EDA               	movwf	fsr2h,c
  4501  000E20  CFFE FFDF          	movff	tosh,indf2	;volatile
  4502                           
  4503                           ;Structure.c: 266: TaskArray[actualPosition].currentAdd1 = TOSL;
  4504  000E24  503A               	movf	_actualPosition,w,c
  4505  000E26  0D18               	mullw	24
  4506  000E28  0E06               	movlw	6
  4507  000E2A  26F3               	addwf	prodl,f,c
  4508  000E2C  0E00               	movlw	0
  4509  000E2E  22F4               	addwfc	prodh,f,c
  4510  000E30  0ED4               	movlw	low _TaskArray
  4511  000E32  24F3               	addwf	prodl,w,c
  4512  000E34  6ED9               	movwf	fsr2l,c
  4513  000E36  0E00               	movlw	high _TaskArray
  4514  000E38  20F4               	addwfc	prodh,w,c
  4515  000E3A  6EDA               	movwf	fsr2h,c
  4516  000E3C  CFFD FFDF          	movff	tosl,indf2	;volatile
  4517                           
  4518                           ;Structure.c: 267: STKPTR++;
  4519  000E40  2AFC               	incf	stkptr,f,c	;volatile
  4520  000E42  0012               	return		;funcret
  4521  000E44                     __end_ofi2_saveInterruptedState:
  4522                           	opt stack 0
  4523                           tosu	equ	0xFFF
  4524                           tosh	equ	0xFFE
  4525                           tosl	equ	0xFFD
  4526                           stkptr	equ	0xFFC
  4527                           pclatu	equ	0xFFB
  4528                           pclath	equ	0xFFA
  4529                           tblptru	equ	0xFF8
  4530                           tblptrh	equ	0xFF7
  4531                           tblptrl	equ	0xFF6
  4532                           tablat	equ	0xFF5
  4533                           prodh	equ	0xFF4
  4534                           prodl	equ	0xFF3
  4535                           intcon	equ	0xFF2
  4536                           intcon2	equ	0xFF1
  4537                           intcon3	equ	0xFF0
  4538                           postinc0	equ	0xFEE
  4539                           fsr0h	equ	0xFEA
  4540                           fsr0l	equ	0xFE9
  4541                           wreg	equ	0xFE8
  4542                           indf1	equ	0xFE7
  4543                           postdec1	equ	0xFE5
  4544                           fsr1h	equ	0xFE2
  4545                           fsr1l	equ	0xFE1
  4546                           bsr	equ	0xFE0
  4547                           indf2	equ	0xFDF
  4548                           postinc2	equ	0xFDE
  4549                           postdec2	equ	0xFDD
  4550                           fsr2h	equ	0xFDA
  4551                           fsr2l	equ	0xFD9
  4552                           status	equ	0xFD8
  4553                           
  4554 ;; *************** function _reductionTime *****************
  4555 ;; Defined at:
  4556 ;;		line 231 in file "Structure.c"
  4557 ;; Parameters:    Size  Location     Type
  4558 ;;		None
  4559 ;; Auto vars:     Size  Location     Type
  4560 ;;		None
  4561 ;; Return value:  Size  Location     Type
  4562 ;;                  2   42[None  ] int 
  4563 ;; Registers used:
  4564 ;;		wreg, fsr2l, fsr2h, status,2, status,0, prodl, prodh
  4565 ;; Tracked objects:
  4566 ;;		On entry : 0/0
  4567 ;;		On exit  : 0/0
  4568 ;;		Unchanged: 0/0
  4569 ;; Data sizes:     COMRAM   BANK0   BANK1   BANK2   BANK3   BANK4   BANK5   BANK6   BANK7
  4570 ;;      Params:         0       0       0       0       0       0       0       0       0
  4571 ;;      Locals:         0       0       0       0       0       0       0       0       0
  4572 ;;      Temps:          2       0       0       0       0       0       0       0       0
  4573 ;;      Totals:         2       0       0       0       0       0       0       0       0
  4574 ;;Total ram usage:        2 bytes
  4575 ;; Hardware stack levels used:    1
  4576 ;; This function calls:
  4577 ;;		Nothing
  4578 ;; This function is called by:
  4579 ;;		_High_Priority_Interrupt
  4580 ;; This function uses a non-reentrant model
  4581 ;;
  4582                           
  4583                           	psect	text20
  4584  000F0C                     __ptext20:
  4585                           	opt stack 0
  4586  000F0C                     _reductionTime:
  4587                           	opt stack 24
  4588                           
  4589                           ;Structure.c: 232: for(i=0;i<11;i++){
  4590                           
  4591                           ;incstack = 0
  4592  000F0C  0E00               	movlw	0
  4593  000F0E  6E06               	movwf	_i,c
  4594  000F10                     i2l1987:
  4595  000F10  0E0A               	movlw	10
  4596  000F12  6406               	cpfsgt	_i,c
  4597  000F14  D001               	goto	i2l1991
  4598  000F16  D04D               	goto	i2l2003
  4599  000F18                     i2l1991:
  4600                           
  4601                           ;Structure.c: 233: if(TaskArray[i].Delayed==1){
  4602  000F18  5006               	movf	_i,w,c
  4603  000F1A  0D18               	mullw	24
  4604  000F1C  0E0E               	movlw	14
  4605  000F1E  26F3               	addwf	prodl,f,c
  4606  000F20  0E00               	movlw	0
  4607  000F22  22F4               	addwfc	prodh,f,c
  4608  000F24  0ED4               	movlw	low _TaskArray
  4609  000F26  24F3               	addwf	prodl,w,c
  4610  000F28  6ED9               	movwf	fsr2l,c
  4611  000F2A  0E00               	movlw	high _TaskArray
  4612  000F2C  20F4               	addwfc	prodh,w,c
  4613  000F2E  6EDA               	movwf	fsr2h,c
  4614  000F30  04DE               	decf	postinc2,w,c
  4615  000F32  A4D8               	btfss	status,2,c
  4616  000F34  D03C               	goto	i2l269
  4617                           
  4618                           ;Structure.c: 234: TaskArray[i].DelayTime--;
  4619  000F36  5006               	movf	_i,w,c
  4620  000F38  0D18               	mullw	24
  4621  000F3A  0E0C               	movlw	12
  4622  000F3C  26F3               	addwf	prodl,f,c
  4623  000F3E  0E00               	movlw	0
  4624  000F40  22F4               	addwfc	prodh,f,c
  4625  000F42  0ED4               	movlw	low _TaskArray
  4626  000F44  24F3               	addwf	prodl,w,c
  4627  000F46  6ED9               	movwf	fsr2l,c
  4628  000F48  0E00               	movlw	high _TaskArray
  4629  000F4A  20F4               	addwfc	prodh,w,c
  4630  000F4C  6EDA               	movwf	fsr2h,c
  4631  000F4E  06DE               	decf	postinc2,f,c
  4632  000F50  0E00               	movlw	0
  4633  000F52  5ADD               	subwfb	postdec2,f,c
  4634                           
  4635                           ;Structure.c: 235: if(TaskArray[i].DelayTime==0){
  4636  000F54  5006               	movf	_i,w,c
  4637  000F56  0D18               	mullw	24
  4638  000F58  0E0C               	movlw	12
  4639  000F5A  26F3               	addwf	prodl,f,c
  4640  000F5C  0E00               	movlw	0
  4641  000F5E  22F4               	addwfc	prodh,f,c
  4642  000F60  0ED4               	movlw	low _TaskArray
  4643  000F62  24F3               	addwf	prodl,w,c
  4644  000F64  6ED9               	movwf	fsr2l,c
  4645  000F66  0E00               	movlw	high _TaskArray
  4646  000F68  20F4               	addwfc	prodh,w,c
  4647  000F6A  6EDA               	movwf	fsr2h,c
  4648  000F6C  50DE               	movf	postinc2,w,c
  4649  000F6E  10DE               	iorwf	postinc2,w,c
  4650  000F70  A4D8               	btfss	status,2,c
  4651  000F72  D01D               	goto	i2l269
  4652                           
  4653                           ;Structure.c: 236: cont--;
  4654  000F74  0605               	decf	_cont,f,c
  4655                           
  4656                           ;Structure.c: 237: TaskArray[i].state=2;
  4657  000F76  5006               	movf	_i,w,c
  4658  000F78  0D18               	mullw	24
  4659  000F7A  0E03               	movlw	3
  4660  000F7C  26F3               	addwf	prodl,f,c
  4661  000F7E  0E00               	movlw	0
  4662  000F80  22F4               	addwfc	prodh,f,c
  4663  000F82  0ED4               	movlw	low _TaskArray
  4664  000F84  24F3               	addwf	prodl,w,c
  4665  000F86  6ED9               	movwf	fsr2l,c
  4666  000F88  0E00               	movlw	high _TaskArray
  4667  000F8A  20F4               	addwfc	prodh,w,c
  4668  000F8C  6EDA               	movwf	fsr2h,c
  4669  000F8E  0E02               	movlw	2
  4670  000F90  6EDF               	movwf	indf2,c
  4671                           
  4672                           ;Structure.c: 238: TaskArray[i].Delayed=0;
  4673  000F92  5006               	movf	_i,w,c
  4674  000F94  0D18               	mullw	24
  4675  000F96  0E0E               	movlw	14
  4676  000F98  26F3               	addwf	prodl,f,c
  4677  000F9A  0E00               	movlw	0
  4678  000F9C  22F4               	addwfc	prodh,f,c
  4679  000F9E  0ED4               	movlw	low _TaskArray
  4680  000FA0  24F3               	addwf	prodl,w,c
  4681  000FA2  6ED9               	movwf	fsr2l,c
  4682  000FA4  0E00               	movlw	high _TaskArray
  4683  000FA6  20F4               	addwfc	prodh,w,c
  4684  000FA8  6EDA               	movwf	fsr2h,c
  4685  000FAA  0E00               	movlw	0
  4686  000FAC  6EDF               	movwf	indf2,c
  4687  000FAE                     i2l269:
  4688  000FAE  2A06               	incf	_i,f,c
  4689  000FB0  D7AF               	goto	i2l1987
  4690  000FB2                     i2l2003:
  4691                           
  4692                           ;Structure.c: 239: }
  4693                           ;Structure.c: 240: }
  4694                           ;Structure.c: 241: }
  4695                           ;Structure.c: 242: if(cont==0){
  4696  000FB2  5005               	movf	_cont,w,c
  4697  000FB4  A4D8               	btfss	status,2,c
  4698  000FB6  D002               	goto	i2l2007
  4699                           
  4700                           ;Structure.c: 243: TMR1IE=0;
  4701  000FB8  909D               	bcf	3997,0,c	;volatile
  4702                           
  4703                           ;Structure.c: 244: T1CONbits.TMR1ON=1;
  4704  000FBA  80CD               	bsf	4045,0,c	;volatile
  4705  000FBC                     i2l2007:
  4706                           
  4707                           ;Structure.c: 245: }
  4708                           ;Structure.c: 247: TOS = &OSRun;
  4709  000FBC  0ED0               	movlw	low _OSRun
  4710  000FBE  6EFD               	movwf	tosl,c	;volatile
  4711  000FC0  0E07               	movlw	high _OSRun
  4712  000FC2  6EFE               	movwf	tosh,c	;volatile
  4713  000FC4  0E00               	movlw	low (_OSRun shr (0+16))
  4714  000FC6  6EFF               	movwf	tosu,c	;volatile
  4715  000FC8  0010               	retfie		;# 
  4716  000FCA  0012               	return		;funcret
  4717  000FCC                     __end_of_reductionTime:
  4718                           	opt stack 0
  4719  0000                     tosu	equ	0xFFF
  4720                           tosh	equ	0xFFE
  4721                           tosl	equ	0xFFD
  4722                           stkptr	equ	0xFFC
  4723                           pclatu	equ	0xFFB
  4724                           pclath	equ	0xFFA
  4725                           tblptru	equ	0xFF8
  4726                           tblptrh	equ	0xFF7
  4727                           tblptrl	equ	0xFF6
  4728                           tablat	equ	0xFF5
  4729                           prodh	equ	0xFF4
  4730                           prodl	equ	0xFF3
  4731                           intcon	equ	0xFF2
  4732                           intcon2	equ	0xFF1
  4733                           intcon3	equ	0xFF0
  4734                           postinc0	equ	0xFEE
  4735                           fsr0h	equ	0xFEA
  4736                           fsr0l	equ	0xFE9
  4737                           wreg	equ	0xFE8
  4738                           indf1	equ	0xFE7
  4739                           postdec1	equ	0xFE5
  4740                           fsr1h	equ	0xFE2
  4741                           fsr1l	equ	0xFE1
  4742                           bsr	equ	0xFE0
  4743                           indf2	equ	0xFDF
  4744                           postinc2	equ	0xFDE
  4745                           postdec2	equ	0xFDD
  4746                           fsr2h	equ	0xFDA
  4747                           fsr2l	equ	0xFD9
  4748                           status	equ	0xFD8
  4749                           tosu	equ	0xFFF
  4750                           tosh	equ	0xFFE
  4751                           tosl	equ	0xFFD
  4752                           stkptr	equ	0xFFC
  4753                           pclatu	equ	0xFFB
  4754                           pclath	equ	0xFFA
  4755                           tblptru	equ	0xFF8
  4756                           tblptrh	equ	0xFF7
  4757                           tblptrl	equ	0xFF6
  4758                           tablat	equ	0xFF5
  4759                           prodh	equ	0xFF4
  4760                           prodl	equ	0xFF3
  4761                           intcon	equ	0xFF2
  4762                           intcon2	equ	0xFF1
  4763                           intcon3	equ	0xFF0
  4764                           postinc0	equ	0xFEE
  4765                           fsr0h	equ	0xFEA
  4766                           fsr0l	equ	0xFE9
  4767                           wreg	equ	0xFE8
  4768                           indf1	equ	0xFE7
  4769                           postdec1	equ	0xFE5
  4770                           fsr1h	equ	0xFE2
  4771                           fsr1l	equ	0xFE1
  4772                           bsr	equ	0xFE0
  4773                           indf2	equ	0xFDF
  4774                           postinc2	equ	0xFDE
  4775                           postdec2	equ	0xFDD
  4776                           fsr2h	equ	0xFDA
  4777                           fsr2l	equ	0xFD9
  4778                           status	equ	0xFD8
  4779                           
  4780                           	psect	text21
  4781  000000                     __ptext21:
  4782                           	opt stack 0
  4783                           tosu	equ	0xFFF
  4784                           tosh	equ	0xFFE
  4785                           tosl	equ	0xFFD
  4786                           stkptr	equ	0xFFC
  4787                           pclatu	equ	0xFFB
  4788                           pclath	equ	0xFFA
  4789                           tblptru	equ	0xFF8
  4790                           tblptrh	equ	0xFF7
  4791                           tblptrl	equ	0xFF6
  4792                           tablat	equ	0xFF5
  4793                           prodh	equ	0xFF4
  4794                           prodl	equ	0xFF3
  4795                           intcon	equ	0xFF2
  4796                           intcon2	equ	0xFF1
  4797                           intcon3	equ	0xFF0
  4798                           postinc0	equ	0xFEE
  4799                           fsr0h	equ	0xFEA
  4800                           fsr0l	equ	0xFE9
  4801                           wreg	equ	0xFE8
  4802                           indf1	equ	0xFE7
  4803                           postdec1	equ	0xFE5
  4804                           fsr1h	equ	0xFE2
  4805                           fsr1l	equ	0xFE1
  4806                           bsr	equ	0xFE0
  4807                           indf2	equ	0xFDF
  4808                           postinc2	equ	0xFDE
  4809                           postdec2	equ	0xFDD
  4810                           fsr2h	equ	0xFDA
  4811                           fsr2l	equ	0xFD9
  4812                           status	equ	0xFD8
  4813                           
  4814                           	psect	rparam
  4815  0000                     tosu	equ	0xFFF
  4816                           tosh	equ	0xFFE
  4817                           tosl	equ	0xFFD
  4818                           stkptr	equ	0xFFC
  4819                           pclatu	equ	0xFFB
  4820                           pclath	equ	0xFFA
  4821                           tblptru	equ	0xFF8
  4822                           tblptrh	equ	0xFF7
  4823                           tblptrl	equ	0xFF6
  4824                           tablat	equ	0xFF5
  4825                           prodh	equ	0xFF4
  4826                           prodl	equ	0xFF3
  4827                           intcon	equ	0xFF2
  4828                           intcon2	equ	0xFF1
  4829                           intcon3	equ	0xFF0
  4830                           postinc0	equ	0xFEE
  4831                           fsr0h	equ	0xFEA
  4832                           fsr0l	equ	0xFE9
  4833                           wreg	equ	0xFE8
  4834                           indf1	equ	0xFE7
  4835                           postdec1	equ	0xFE5
  4836                           fsr1h	equ	0xFE2
  4837                           fsr1l	equ	0xFE1
  4838                           bsr	equ	0xFE0
  4839                           indf2	equ	0xFDF
  4840                           postinc2	equ	0xFDE
  4841                           postdec2	equ	0xFDD
  4842                           fsr2h	equ	0xFDA
  4843                           fsr2l	equ	0xFD9
  4844                           status	equ	0xFD8
  4845                           
  4846                           	psect	temp
  4847  000046                     btemp:
  4848                           	opt stack 0
  4849  000046                     	ds	1
  4850  0000                     int$flags	set	btemp
  4851                           tosu	equ	0xFFF
  4852                           tosh	equ	0xFFE
  4853                           tosl	equ	0xFFD
  4854                           stkptr	equ	0xFFC
  4855                           pclatu	equ	0xFFB
  4856                           pclath	equ	0xFFA
  4857                           tblptru	equ	0xFF8
  4858                           tblptrh	equ	0xFF7
  4859                           tblptrl	equ	0xFF6
  4860                           tablat	equ	0xFF5
  4861                           prodh	equ	0xFF4
  4862                           prodl	equ	0xFF3
  4863                           intcon	equ	0xFF2
  4864                           intcon2	equ	0xFF1
  4865                           intcon3	equ	0xFF0
  4866                           postinc0	equ	0xFEE
  4867                           fsr0h	equ	0xFEA
  4868                           fsr0l	equ	0xFE9
  4869                           wreg	equ	0xFE8
  4870                           indf1	equ	0xFE7
  4871                           postdec1	equ	0xFE5
  4872                           fsr1h	equ	0xFE2
  4873                           fsr1l	equ	0xFE1
  4874                           bsr	equ	0xFE0
  4875                           indf2	equ	0xFDF
  4876                           postinc2	equ	0xFDE
  4877                           postdec2	equ	0xFDD
  4878                           fsr2h	equ	0xFDA
  4879                           fsr2l	equ	0xFD9
  4880                           status	equ	0xFD8


Data Sizes:
    Strings     0
    Constant    0
    Data        17
    BSS         382
    Persistent  0
    Stack       0

Auto Spaces:
    Space          Size  Autos    Used
    COMRAM           94     26      69
    BANK0           160     24     116
    BANK1           256      0       0
    BANK2           256      0       0
    BANK3           256      0       0
    BANK4           256      0       0
    BANK5           256      0       0
    BANK6           256      0       0
    BANK7           256      0       0

Pointer List with Targets:

    z	PTR volatile unsigned long  size(2) Largest target is 0
		 -> NULL(NULL[0]), 

    ReadingMailBox@r	PTR unsigned long  size(2) Largest target is 3
		 -> y(COMRAM[2]), 

    r_pointer	PTR unsigned long  size(2) Largest target is 3
		 -> NULL(NULL[0]), y(COMRAM[2]), 

    S544Task$r_dataPTR	PTR unsigned long  size(2) Largest target is 0

    TaskArray.r_dataPTR	PTR unsigned long  size(2) Largest target is 0

    y	PTR volatile unsigned long  size(2) Largest target is 0
		 -> NULL(NULL[0]), 


Critical Paths under _main in COMRAM

    _xTaskCreate->_OSRun
    _WritingMailBox->_OSRun
    _PWM1->_mailBoxHasData
    _PWM1->_mailBox_init_conection
    _vTaskDelete->_OSRun
    _vTaskDelay->_OSRun
    _ReadingMailBox->_OSRun

Critical Paths under _High_Priority_Interrupt in COMRAM

    _High_Priority_Interrupt->_reductionTime

Critical Paths under _Low_Priority_Interrupt in COMRAM

    _Low_Priority_Interrupt->_xInterruptTaskCreate

Critical Paths under _main in BANK0

    _main->_PWM1
    _RX1->_WritingMailBox
    _PWM1->_ReadingMailBox

Critical Paths under _High_Priority_Interrupt in BANK0

    None.

Critical Paths under _Low_Priority_Interrupt in BANK0

    None.

Critical Paths under _main in BANK1

    None.

Critical Paths under _High_Priority_Interrupt in BANK1

    None.

Critical Paths under _Low_Priority_Interrupt in BANK1

    None.

Critical Paths under _main in BANK2

    None.

Critical Paths under _High_Priority_Interrupt in BANK2

    None.

Critical Paths under _Low_Priority_Interrupt in BANK2

    None.

Critical Paths under _main in BANK3

    None.

Critical Paths under _High_Priority_Interrupt in BANK3

    None.

Critical Paths under _Low_Priority_Interrupt in BANK3

    None.

Critical Paths under _main in BANK4

    None.

Critical Paths under _High_Priority_Interrupt in BANK4

    None.

Critical Paths under _Low_Priority_Interrupt in BANK4

    None.

Critical Paths under _main in BANK5

    None.

Critical Paths under _High_Priority_Interrupt in BANK5

    None.

Critical Paths under _Low_Priority_Interrupt in BANK5

    None.

Critical Paths under _main in BANK6

    None.

Critical Paths under _High_Priority_Interrupt in BANK6

    None.

Critical Paths under _Low_Priority_Interrupt in BANK6

    None.

Critical Paths under _main in BANK7

    None.

Critical Paths under _High_Priority_Interrupt in BANK7

    None.

Critical Paths under _Low_Priority_Interrupt in BANK7

    None.

Call Graph Tables:

 ---------------------------------------------------------------------------------
 (Depth) Function   	        Calls       Base Space   Used Autos Params    Refs
 ---------------------------------------------------------------------------------
 (0) _main                                                 0     0      0    1982
                             _OSInit
                               _PWM1
                                _RX1
                             _extInt
                         _ports_Init
                        _xTaskCreate
 ---------------------------------------------------------------------------------
 (1) _xTaskCreate                                          6     0      6     510
                                             14 BANK0      6     0      6
                              _OSRun
 ---------------------------------------------------------------------------------
 (1) _ports_Init                                           0     0      0       0
 ---------------------------------------------------------------------------------
 (1) _extInt                                               0     0      0       0
 ---------------------------------------------------------------------------------
 (1) _RX1                                                  0     0      0     617
                     _WritingMailBox
                         _vTaskDelay
                        _vTaskDelete
 ---------------------------------------------------------------------------------
 (2) _WritingMailBox                                       5     4      1     201
                                             14 BANK0      5     4      1
                              _OSRun
                      _waitForBuffer
 ---------------------------------------------------------------------------------
 (1) _PWM1                                                 2     2      0     855
                                             22 BANK0      2     2      0
                     _ReadingMailBox
                     _mailBoxHasData
             _mailBox_init_conection
                         _vTaskDelay
                        _vTaskDelete
 ---------------------------------------------------------------------------------
 (2) _vTaskDelete                                          0     0      0       0
                              _OSRun
 ---------------------------------------------------------------------------------
 (2) _vTaskDelay                                           2     0      2     416
                                             14 BANK0      2     0      2
                              _OSRun
 ---------------------------------------------------------------------------------
 (2) _mailBox_init_conection                               2     1      1     170
                                             25 COMRAM     1     0      1
                                             14 BANK0      1     1      0
 ---------------------------------------------------------------------------------
 (2) _mailBoxHasData                                       1     1      0      22
                                             25 COMRAM     1     1      0
 ---------------------------------------------------------------------------------
 (2) _ReadingMailBox                                       8     6      2     247
                                             14 BANK0      8     6      2
                              _OSRun
                      _waitForBuffer
 ---------------------------------------------------------------------------------
 (3) _waitForBuffer                                        0     0      0       0
 ---------------------------------------------------------------------------------
 (2) _OSRun                                                1     1      0       0
                                             25 COMRAM     1     1      0
 ---------------------------------------------------------------------------------
 (1) _OSInit                                               0     0      0       0
 ---------------------------------------------------------------------------------
 Estimated maximum stack depth 3
 ---------------------------------------------------------------------------------
 (Depth) Function   	        Calls       Base Space   Used Autos Params    Refs
 ---------------------------------------------------------------------------------
 (4) _Low_Priority_Interrupt                              17    17      0     758
                                              6 COMRAM    17    17      0
               _saveInterruptedState
               _xInterruptTaskCreate
 ---------------------------------------------------------------------------------
 (5) _xInterruptTaskCreate                                 6     0      6     758
                                              0 COMRAM     6     0      6
 ---------------------------------------------------------------------------------
 (5) _saveInterruptedState                                 0     0      0       0
 ---------------------------------------------------------------------------------
 Estimated maximum stack depth 5
 ---------------------------------------------------------------------------------
 (Depth) Function   	        Calls       Base Space   Used Autos Params    Refs
 ---------------------------------------------------------------------------------
 (6) _High_Priority_Interrupt                             14    14      0       0
                                              0 BANK0     14    14      0
                      _reductionTime
             i2_saveInterruptedState
 ---------------------------------------------------------------------------------
 (7) i2_saveInterruptedState                               0     0      0       0
 ---------------------------------------------------------------------------------
 (7) _reductionTime                                        2     2      0       0
                                             23 COMRAM     2     2      0
 ---------------------------------------------------------------------------------
 Estimated maximum stack depth 7
 ---------------------------------------------------------------------------------

 Call Graph Graphs:

 _main (ROOT)
   _OSInit
   _PWM1
     _ReadingMailBox
       _OSRun
       _waitForBuffer
     _mailBoxHasData
     _mailBox_init_conection
     _vTaskDelay
       _OSRun
     _vTaskDelete
       _OSRun
   _RX1
     _WritingMailBox
       _OSRun
       _waitForBuffer
     _vTaskDelay
       _OSRun
     _vTaskDelete
       _OSRun
   _extInt
   _ports_Init
   _xTaskCreate
     _OSRun

 _Low_Priority_Interrupt (ROOT)
   _saveInterruptedState
   _xInterruptTaskCreate

 _High_Priority_Interrupt (ROOT)
   _reductionTime
   i2_saveInterruptedState

 Address spaces:
Name               Size   Autos  Total    Cost      Usage
BIGRAM             7FF      0     108      21       12.9%
EEDATA             100      0       0       0        0.0%
BITBANK7           100      0       0      18        0.0%
BANK7              100      0       0      19        0.0%
BITBANK6           100      0       0      16        0.0%
BANK6              100      0       0      17        0.0%
BITBANK5           100      0       0      14        0.0%
BANK5              100      0       0      15        0.0%
BITBANK4           100      0       0      12        0.0%
BANK4              100      0       0      13        0.0%
BITBANK3           100      0       0      10        0.0%
BANK3              100      0       0      11        0.0%
BITBANK2           100      0       0       8        0.0%
BANK2              100      0       0       9        0.0%
BITBANK1           100      0       0       6        0.0%
BANK1              100      0       0       7        0.0%
BITBANK0            A0      0       0       4        0.0%
BANK0               A0     18      74       5       72.5%
BITCOMRAM           5E      0       0       0        0.0%
COMRAM              5E     1A      45       1       73.4%
BITSFR               0      0       0      40        0.0%
SFR                  0      0       0      40        0.0%
STACK                0      0       0       2        0.0%
NULL                 0      0       0       0        0.0%
ABS                  0      0      B9      20        0.0%
DATA                 0      0     1C1       3        0.0%
CODE                 0      0       0       0        0.0%


Microchip Technology PIC18 Macro Assembler V1.35 build -356382666 
Symbol Table                                                                                   Sun Apr 03 19:28:04 2016

                               _i 0006                                 _x 00B8  
                               _y 0019                                 _z 0003  
         Structure@s_STATUSBackup 0036                                bsr 000FE0  
                     __CFG_BORV$3 000000                               l123 12FC  
                             l288 0C80                               l297 086C  
                             _CN1 0038                               _CN2 0039  
                             _GIE 007F97                               _BSR 000FE0  
                             _RX1 1212                               _TOS 000FFD  
                    __CFG_BOR$OFF 000000                               prod 000FF3  
                             wreg 000FE8                   ?_mailBoxHasData 001B  
                    __CFG_LVP$OFF 000000            i2_saveInterruptedState 0D7A  
                            ?_RX1 001B                      __CFG_WDT$OFF 000000  
                            l1623 0BF0                              l1619 0BE8  
                            l1821 049A                              l1913 0202  
                            l1817 0492                              l1771 07E4  
                            l1843 058E                              l1933 0480  
                            l1941 1228                              l1775 07EC  
                            l1839 058A                              l1785 088C  
                            l1881 0E9E                              l1873 0E5A  
                            l1795 097A                              l1891 00F2  
                            l1789 0890                              l1885 0EA2  
                            l1869 0E52                              l1895 00FA  
                            l1975 11D6                              l1969 11B4  
                            _LATB 000F8A                              _PWM1 1192  
                            _TOSH 000FFE                              _TOSL 000FFD  
                            _WREG 000FE8                              _TOSU 000FFF  
                    __CFG_PWRT$ON 000000                      ?_vTaskDelete 001B  
                 _schedulerStatus 0045                              _i_dr 0008  
                            _i_dw 0009                              _cont 0005  
                            _main 12C4                              fsr0h 000FEA  
                            fsr1h 000FE2                              fsr0l 000FE9  
                            fsr2h 000FDA                              indf1 000FE7  
                            fsr1l 000FE1                              indf2 000FDF  
                            fsr2l 000FD9                              btemp 0046  
                            pclat 000FFA                              prodh 000FF4  
                            prodl 000FF3                              start 00DC  
                   __CFG_IESO$OFF 000000                     __CFG_MCLRE$ON 000000  
           xTaskCreate@pvTaskCode 00CA                      ___param_bank 000010  
                           ??_RX1 0035                             ?_PWM1 001B  
                   __CFG_PLLDIV$1 000000                    __CFG_CCP2MX$ON 000000  
                    ?_xTaskCreate 00CA                             ?_main 001B  
__size_of_High_Priority_Interrupt 1108                             _T1CON 000FCD  
                           _LATB3 007C53                             i1l120 0094  
                           i2l115 10D4                             i2l269 0FAE  
                           _TMR1H 000FCF                             _TMR1L 000FCE  
                   __CFG_USBDIV$1 000000                             _TRISB 000F93  
                           _OSRun 07D0                    __CFG_FCMEN$OFF 000000  
           __end_of_reductionTime 0FCC                             _i_mic 000A  
                           _i_rmb 000B                             _i_wmb 000C  
                           _index 000D                             tablat 000FF5  
                           status 000FD8      mailBox_init_conection@reader 00CA  
                    __end_of_PWM1 1212                   __initialization 126E  
                    __end_of_main 1300      mailBox_init_conection@writer 0034  
                          ??_PWM1 00D2                            ??_main 0035  
                   __activetblptr 000000                    _actualPosition 003A  
                          ?_OSRun 001B           ?_mailBox_init_conection 0034  
                          _INT1IE 007F83                            _INT1IF 007F80  
                          _INT2IE 007F84                            _INT2IF 007F81  
                          i1l2047 0088                            i2l2003 0FB2  
                          i2l2007 0FBC                            i2l1991 0F18  
                          i2l1987 0F10                            _TMR1IE 007CE8  
                          _TMR1IF 007CF0                            _STATUS 000FD8  
                          _STKPTR 000FFC                            _OSInit 0BE0  
            Structure@s_BSRBackup 0035                    __CFG_XINST$OFF 000000  
    __end_of_xInterruptTaskCreate 0BE0           __size_of_ReadingMailBox 03A4  
                          _extInt 135E                            clear_0 1276  
                          clear_1 1288                            clear_2 1294  
                          _valor1 0017                            _valor2 0018  
                    __pdataCOMRAM 0035        mailBoxHasData@mailboxIndex 0034  
                  _s_STATUSBackup 0043                            tblptrh 000FF7  
                          tblptrl 000FF6                            tblptru 000FF8  
  __end_of_mailBox_init_conection 0F0C             __end_of_waitForBuffer 1192  
          xInterruptTaskCreate@Id 001F                        __accesstop 0060  
         __end_of__initialization 12BA                   __CFG_PBADEN$OFF 000000  
            __size_of_vTaskDelete 0028                     ___rparam_used 000001  
                   __end_of_OSRun 0980                    __pcstackCOMRAM 001B  
    __end_of_saveInterruptedState 0D7A           _High_Priority_Interrupt 0008  
                ??_mailBoxHasData 0034              __size_of_xTaskCreate 0158  
                         ??_OSRun 0034           ?i2_saveInterruptedState 001B  
         __size_of_WritingMailBox 034C                        __pbssBANK0 0060  
                         ?_OSInit 001B                      _s_WREGBackup 0044  
                         ?_extInt 001B          ??_Low_Priority_Interrupt 0021  
  __end_ofi2_saveInterruptedState 0E44              _xInterruptTaskCreate 0AD8  
                 __CFG_VREGEN$OFF 000000                   __size_of_OSInit 00D0  
                      _vTaskDelay 0FCC                 vTaskDelay@delayms 00CA  
                    _MailBoxArray 0060                           __Hparam 0000  
                         __Lparam 0000                           _iAmDone 0007  
       ??_High_Priority_Interrupt 00BC                    _ReadingMailBox 00E0  
                 __CFG_STVREN$OFF 000000                           __pcinit 126E  
                 __size_of_extInt 0012                        _dutyCycle1 003B  
                      _dutyCycle2 003C                        _dutyCycle3 003D  
                      _dutyCycle4 003E                        _dutyCycle5 003F  
                      _dutyCycle6 0040                           __ramtop 0800  
                         __ptext0 12C4                           __ptext1 0980  
                         __ptext2 1346                           __ptext3 135E  
                         __ptext4 1212                           __ptext5 0484  
                         __ptext6 1192                           __ptext7 1300  
                         __ptext8 0FCC                           __ptext9 0E44  
                    __size_of_RX1 005C                         _T1CONbits 000FCD  
           ?_xInterruptTaskCreate 001B                    __pintcode_body 108A  
            _saveInterruptedState 0CB0              end_of_initialization 12BA  
                         int_func 108A            __end_of_ReadingMailBox 0484  
                         postdec1 000FE5                           postdec2 000FDD  
                         postinc0 000FEE                           postinc2 000FDE  
          __size_of_reductionTime 00C0                         _PORTBbits 000F81  
 __size_of_Low_Priority_Interrupt 00C4                  xTaskCreate@Prior 00CF  
                       _TRISBbits 000F93                        _ports_Init 1346  
            WritingMailBox@reader 00CA             ?_saveInterruptedState 001B  
                  _WritingMailBox 0484                     _schedulerAdd1 0013  
                   _schedulerAdd2 0014                     _schedulerAdd3 0015  
       xInterruptTaskCreate@Prior 0020             Structure@s_WREGBackup 0037  
                     ?_vTaskDelay 00CA                    __end_of_OSInit 0CB0  
                 ?_ReadingMailBox 00CA                     __pidataCOMRAM 1370  
  xInterruptTaskCreate@pvTaskCode 001B                    __end_of_extInt 1370  
          ??_xInterruptTaskCreate 0021               start_initialization 126E  
                     __end_of_RX1 126E            __end_of_WritingMailBox 07D0  
                   _reductionTime 0F0C                     ??_vTaskDelete 0035  
                        ??_OSInit 0034            _Low_Priority_Interrupt 0018  
                       _TaskArray 00D4                       _s_BSRBackup 0042  
          __size_of_waitForBuffer 0082                  __CFG_LPT1OSC$OFF 000000  
                        ??_extInt 0034                     ??_xTaskCreate 0035  
                     __pbssBIGRAM 00D4               __size_of_vTaskDelay 00BE  
                     __pbssCOMRAM 0001                     __pcstackBANK0 00BC  
                     ?_ports_Init 001B                   ?_WritingMailBox 00CA  
          ??_saveInterruptedState 001B                    ?_reductionTime 001B  
             __end_of_vTaskDelete 1328                         __pintcode 0008  
           ReadingMailBox@writter 00D1                       __pintcodelo 0018  
        ??_mailBox_init_conection 0035                    __size_of_OSRun 01B0  
                       _index_mic 0010                         _index_rmb 0011  
                       _index_wmb 0012               __end_of_xTaskCreate 0AD8  
         __size_of_mailBoxHasData 001E                     _waitForBuffer 1110  
                 ReadingMailBox@r 00CA                         _r_pointer 0001  
                        _PIE1bits 000F9D                          _PIR1bits 000F9E  
                        _RCONbits 000FD0                  __CFG_WDTPS$32768 000000  
             __size_of_ports_Init 0018                        _ADCON1bits 000FC1  
                 ??_reductionTime 0032                    ?_waitForBuffer 001B  
                     _INTCON2bits 000FF1                       _INTCON3bits 000FF0  
                       copy_data0 12AE                       _vTaskDelete 1300  
                ??_ReadingMailBox 00CC                      ??_vTaskDelay 0035  
        ?_High_Priority_Interrupt 001B                          __Hrparam 0000  
                        __Lrparam 0000          ??i2_saveInterruptedState 0032  
                   xTaskCreate@Id 00CE                       _xTaskCreate 0980  
           __CFG_FOSC$INTOSCIO_EC 000000   __size_of_mailBox_init_conection 00C8  
              __end_of_vTaskDelay 108A                      _taskPosition 0016  
                        __ptext10 1328                          __ptext11 00E0  
                        __ptext20 0F0C                          __ptext12 1110  
                        __ptext21 0000                          __ptext13 07D0  
                        __ptext14 0BE0                          __ptext16 0AD8  
                        __ptext17 0CB0                          __ptext19 0D7A  
         ?_Low_Priority_Interrupt 001B                     __size_of_PWM1 0080  
                        _index_dr 000E                          _index_dw 000F  
                        _minPrior 0041                     __size_of_main 003C  
                        int$flags 0046                WritingMailBox@data 00CE  
                ??_WritingMailBox 00CB             __CFG_CPUDIV$OSC4_PLL6 000000  
                      _INTCONbits 000FF2                      ??_ports_Init 0034  
                 ??_waitForBuffer 0034     __size_of_xInterruptTaskCreate 0108  
  __end_of_Low_Priority_Interrupt 00DC                    _mailBoxHasData 1328  
                        intlevel1 0000                          intlevel2 0000  
 __end_of_High_Priority_Interrupt 1110            _mailBox_init_conection 0E44  
                      _OSCCONbits 000FD3                __end_of_ports_Init 135E  
 __size_ofi2_saveInterruptedState 00CA            __end_of_mailBoxHasData 1346  
   __size_of_saveInterruptedState 00CA  
