

Microchip Technology PIC18 LITE Macro Assembler V1.35 build -356382666 
                                                                                               Sun Mar 13 10:59:01 2016

Microchip Technology Omniscient Code Generator v1.35 (Free mode) build 201507080246
     1                           	processor	18F4550
     2                           	fnconf	param0,??,?,0
     3                           	opt	pw 120
     4                           	opt	lm
     5                           	psect	idataCOMRAM,global,class=CODE,delta=1
     6                           	psect	cinit,global,reloc=2,class=CODE,delta=1
     7                           	psect	bssCOMRAM,global,class=COMRAM,space=1,delta=1
     8                           	psect	dataCOMRAM,global,class=COMRAM,space=1,delta=1
     9                           	psect	bssBANK0,global,class=BANK0,space=1,delta=1
    10                           	psect	bssBANK1,global,class=BANK1,space=1,delta=1
    11                           	psect	cstackBANK0,global,class=BANK0,space=1,delta=1
    12                           	psect	cstackCOMRAM,global,class=COMRAM,space=1,delta=1
    13                           	psect	text0,global,reloc=2,class=CODE,delta=1
    14                           	psect	text1,global,reloc=2,class=CODE,delta=1
    15                           	psect	intcodelo,global,reloc=2,class=CODE,delta=1
    16                           	psect	text3,global,reloc=2,class=CODE,delta=1
    17                           	psect	text4,global,reloc=2,class=CODE,delta=1
    18                           	psect	text5,global,reloc=2,class=CODE,delta=1
    19                           	psect	text6,global,reloc=2,class=CODE,delta=1
    20                           	psect	text7,global,reloc=2,class=CODE,delta=1
    21                           	psect	text8,global,reloc=2,class=CODE,delta=1
    22                           	psect	text9,global,reloc=2,class=CODE,delta=1
    23                           	psect	text10,global,reloc=2,class=CODE,delta=1
    24                           	psect	text11,global,reloc=2,class=CODE,delta=1
    25                           	psect	text12,global,reloc=2,class=CODE,delta=1
    26                           	psect	text13,global,reloc=2,class=CODE,delta=1
    27                           	psect	text14,global,reloc=2,class=CODE,delta=1
    28                           	psect	text15,global,reloc=2,class=CODE,delta=1
    29                           	psect	text16,global,reloc=2,class=CODE,delta=1
    30                           	psect	text17,global,reloc=2,class=CODE,delta=1
    31                           	psect	text18,global,reloc=2,class=CODE,delta=1
    32                           	psect	text19,global,reloc=2,class=CODE,delta=1
    33                           	psect	text20,global,reloc=2,class=CODE,delta=1
    34                           	psect	text21,global,reloc=2,class=CODE,delta=1
    35                           	psect	text22,global,reloc=2,class=CODE,delta=1
    36                           	psect	text23,global,reloc=2,class=CODE,delta=1
    37                           	psect	text24,global,reloc=2,class=CODE,delta=1
    38                           	psect	text25,global,reloc=2,class=CODE,delta=1
    39                           	psect	intcode,global,reloc=2,class=CODE,delta=1
    40                           	psect	intcode_body,global,reloc=2,class=CODE,delta=1
    41                           	psect	text27,global,reloc=2,class=CODE,delta=1
    42                           	psect	text28,global,reloc=2,class=CODE,delta=1
    43                           	psect	text29,global,reloc=2,class=CODE,delta=1
    44                           	psect	intsave_regs,global,class=BIGRAM,space=1,delta=1
    45                           	psect	text30,global,reloc=2,class=CODE,delta=1
    46                           	psect	param0,global,class=BANK0,space=1,delta=1
    47                           	psect	temp,global,ovrld,common,class=COMRAM,space=1,delta=1
    48  0000                     
    49                           	psect	idataCOMRAM
    50  001568                     __pidataCOMRAM:
    51                           	opt stack 0
    52                           
    53                           ;initializer for Structure@s_BSRBackup
    54  001568  FF                 	db	255
    55                           
    56                           ;initializer for Structure@s_STATUSBackup
    57  001569  FF                 	db	255
    58                           
    59                           ;initializer for Structure@s_WREGBackup
    60  00156A  FF                 	db	255
    61                           
    62                           ;initializer for _actualPosition
    63  00156B  0A                 	db	10
    64                           
    65                           ;initializer for _dutyCycle1
    66  00156C  01                 	db	1
    67                           
    68                           ;initializer for _dutyCycle2
    69  00156D  02                 	db	2
    70                           
    71                           ;initializer for _dutyCycle3
    72  00156E  03                 	db	3
    73                           
    74                           ;initializer for _dutyCycle4
    75  00156F  04                 	db	4
    76                           
    77                           ;initializer for _dutyCycle5
    78  001570  05                 	db	5
    79                           
    80                           ;initializer for _dutyCycle6
    81  001571  06                 	db	6
    82                           
    83                           ;initializer for _minPrior
    84  001572  FF                 	db	255
    85                           
    86                           ;initializer for _s_BSRBackup
    87  001573  FF                 	db	255
    88                           
    89                           ;initializer for _s_STATUSBackup
    90  001574  FF                 	db	255
    91                           
    92                           ;initializer for _s_WREGBackup
    93  001575  FF                 	db	255
    94                           
    95                           ;initializer for _schedulerStatus
    96  001576  01                 	db	1
    97  0000                     _TOS	set	4093
    98  0000                     _BSR	set	4064
    99  0000                     _INTCON	set	4082
   100  0000                     _LATB	set	3978
   101  0000                     _LATBbits	set	3978
   102  0000                     _OSCCON	set	4051
   103  0000                     _STATUS	set	4056
   104  0000                     _STKPTR	set	4092
   105  0000                     _T0CON	set	4053
   106  0000                     _T0CONbits	set	4053
   107  0000                     _TOSH	set	4094
   108  0000                     _TOSL	set	4093
   109  0000                     _TOSU	set	4095
   110  0000                     _TRISB	set	3987
   111  0000                     _WREG	set	4072
   112  0000                     _GIE	set	32663
   113  0000                     _INT0IE	set	32660
   114  0000                     _INT0IF	set	32657
   115  0000                     _PEIE	set	32662
   116  0000                     _TMR0IE	set	32661
   117  0000                     _TMR0IF	set	32658
   118  0000                     _TMR0ON	set	32431
   119                           
   120                           ; #config settings
   121  0000                     
   122                           	psect	cinit
   123  00135A                     __pcinit:
   124                           	opt stack 0
   125  00135A                     start_initialization:
   126                           	opt stack 0
   127  00135A                     __initialization:
   128                           	opt stack 0
   129                           
   130                           ; Clear objects allocated to BANK1 (231 bytes)
   131  00135A  EE01  F000         	lfsr	0,__pbssBANK1
   132  00135E  0EE7               	movlw	231
   133  001360                     clear_0:
   134  001360  6AEE               	clrf	postinc0,c
   135  001362  06E8               	decf	wreg,f,c
   136  001364  E1FD               	bnz	clear_0
   137                           
   138                           ; Clear objects allocated to BANK0 (88 bytes)
   139  001366  EE00  F060         	lfsr	0,__pbssBANK0
   140  00136A  0E58               	movlw	88
   141  00136C                     clear_1:
   142  00136C  6AEE               	clrf	postinc0,c
   143  00136E  06E8               	decf	wreg,f,c
   144  001370  E1FD               	bnz	clear_1
   145                           
   146                           ; Clear objects allocated to COMRAM (26 bytes)
   147  001372  EE00  F001         	lfsr	0,__pbssCOMRAM
   148  001376  0E1A               	movlw	26
   149  001378                     clear_2:
   150  001378  6AEE               	clrf	postinc0,c
   151  00137A  06E8               	decf	wreg,f,c
   152  00137C  E1FD               	bnz	clear_2
   153                           
   154                           ; Initialize objects allocated to COMRAM (15 bytes)
   155                           ; load TBLPTR registers with __pidataCOMRAM
   156  00137E  0E68               	movlw	low __pidataCOMRAM
   157  001380  6EF6               	movwf	tblptrl,c
   158  001382  0E15               	movlw	high __pidataCOMRAM
   159  001384  6EF7               	movwf	tblptrh,c
   160  001386  0E00               	movlw	low (__pidataCOMRAM shr (0+16))
   161  001388  6EF8               	movwf	tblptru,c
   162  00138A  EE00  F035         	lfsr	0,__pdataCOMRAM
   163  00138E  EE10 F00F          	lfsr	1,15
   164  001392                     copy_data0:
   165  001392  0009               	tblrd		*+
   166  001394  CFF5 FFEE          	movff	tablat,postinc0
   167  001398  50E5               	movf	postdec1,w,c
   168  00139A  50E1               	movf	fsr1l,w,c
   169  00139C  E1FA               	bnz	copy_data0
   170  00139E                     end_of_initialization:
   171                           	opt stack 0
   172  00139E                     __end_of__initialization:
   173                           	opt stack 0
   174  00139E  9044               	bcf	int$flags,0,c	;clear compiler interrupt flag (level 1)
   175  0013A0  9244               	bcf	int$flags,1,c	;clear compiler interrupt flag (level 2)
   176  0013A2  0100               	movlb	0
   177  0013A4  EFBC  F00A         	goto	_main	;jump to C main() function
   178                           tblptru	equ	0xFF8
   179                           tblptrh	equ	0xFF7
   180                           tblptrl	equ	0xFF6
   181                           tablat	equ	0xFF5
   182                           postinc0	equ	0xFEE
   183                           wreg	equ	0xFE8
   184                           postdec1	equ	0xFE5
   185                           fsr1l	equ	0xFE1
   186                           
   187                           	psect	bssCOMRAM
   188  000001                     __pbssCOMRAM:
   189                           	opt stack 0
   190  000001                     _x:
   191                           	opt stack 0
   192  000001                     	ds	4
   193  000005                     _y:
   194                           	opt stack 0
   195  000005                     	ds	2
   196  000007                     _z:
   197                           	opt stack 0
   198  000007                     	ds	2
   199  000009                     _cont:
   200                           	opt stack 0
   201  000009                     	ds	1
   202  00000A                     _i:
   203                           	opt stack 0
   204  00000A                     	ds	1
   205  00000B                     	ds	1
   206  00000C                     _i_dr:
   207                           	opt stack 0
   208  00000C                     	ds	1
   209  00000D                     _i_dw:
   210                           	opt stack 0
   211  00000D                     	ds	1
   212  00000E                     _i_mic:
   213                           	opt stack 0
   214  00000E                     	ds	1
   215  00000F                     _i_rmb:
   216                           	opt stack 0
   217  00000F                     	ds	1
   218  000010                     _i_wmb:
   219                           	opt stack 0
   220  000010                     	ds	1
   221  000011                     _index:
   222                           	opt stack 0
   223  000011                     	ds	1
   224  000012                     _index_dr:
   225                           	opt stack 0
   226  000012                     	ds	1
   227  000013                     _index_dw:
   228                           	opt stack 0
   229  000013                     	ds	1
   230  000014                     _index_mic:
   231                           	opt stack 0
   232  000014                     	ds	1
   233  000015                     _index_rmb:
   234                           	opt stack 0
   235  000015                     	ds	1
   236  000016                     _index_wmb:
   237                           	opt stack 0
   238  000016                     	ds	1
   239  000017                     	ds	1
   240  000018                     	ds	1
   241  000019                     	ds	1
   242  00001A                     _taskPosition:
   243                           	opt stack 0
   244  00001A                     	ds	1
   245                           tblptru	equ	0xFF8
   246                           tblptrh	equ	0xFF7
   247                           tblptrl	equ	0xFF6
   248                           tablat	equ	0xFF5
   249                           postinc0	equ	0xFEE
   250                           wreg	equ	0xFE8
   251                           postdec1	equ	0xFE5
   252                           fsr1l	equ	0xFE1
   253                           
   254                           	psect	dataCOMRAM
   255  000035                     __pdataCOMRAM:
   256                           	opt stack 0
   257  000035                     Structure@s_BSRBackup:
   258                           	opt stack 0
   259  000035                     	ds	1
   260  000036                     Structure@s_STATUSBackup:
   261                           	opt stack 0
   262  000036                     	ds	1
   263  000037                     Structure@s_WREGBackup:
   264                           	opt stack 0
   265  000037                     	ds	1
   266  000038                     _actualPosition:
   267                           	opt stack 0
   268  000038                     	ds	1
   269  000039                     _dutyCycle1:
   270                           	opt stack 0
   271  000039                     	ds	1
   272  00003A                     _dutyCycle2:
   273                           	opt stack 0
   274  00003A                     	ds	1
   275  00003B                     _dutyCycle3:
   276                           	opt stack 0
   277  00003B                     	ds	1
   278  00003C                     _dutyCycle4:
   279                           	opt stack 0
   280  00003C                     	ds	1
   281  00003D                     _dutyCycle5:
   282                           	opt stack 0
   283  00003D                     	ds	1
   284  00003E                     _dutyCycle6:
   285                           	opt stack 0
   286  00003E                     	ds	1
   287  00003F                     _minPrior:
   288                           	opt stack 0
   289  00003F                     	ds	1
   290  000040                     	ds	1
   291  000041                     	ds	1
   292  000042                     	ds	1
   293  000043                     _schedulerStatus:
   294                           	opt stack 0
   295  000043                     	ds	1
   296                           tblptru	equ	0xFF8
   297                           tblptrh	equ	0xFF7
   298                           tblptrl	equ	0xFF6
   299                           tablat	equ	0xFF5
   300                           postinc0	equ	0xFEE
   301                           wreg	equ	0xFE8
   302                           postdec1	equ	0xFE5
   303                           fsr1l	equ	0xFE1
   304                           
   305                           	psect	bssBANK0
   306  000060                     __pbssBANK0:
   307                           	opt stack 0
   308  000060                     _MailBoxArray:
   309                           	opt stack 0
   310  000060                     	ds	88
   311                           tblptru	equ	0xFF8
   312                           tblptrh	equ	0xFF7
   313                           tblptrl	equ	0xFF6
   314                           tablat	equ	0xFF5
   315                           postinc0	equ	0xFEE
   316                           wreg	equ	0xFE8
   317                           postdec1	equ	0xFE5
   318                           fsr1l	equ	0xFE1
   319                           
   320                           	psect	bssBANK1
   321  000100                     __pbssBANK1:
   322                           	opt stack 0
   323  000100                     _TaskArray:
   324                           	opt stack 0
   325  000100                     	ds	231
   326                           tblptru	equ	0xFF8
   327                           tblptrh	equ	0xFF7
   328                           tblptrl	equ	0xFF6
   329                           tablat	equ	0xFF5
   330                           postinc0	equ	0xFEE
   331                           wreg	equ	0xFE8
   332                           postdec1	equ	0xFE5
   333                           fsr1l	equ	0xFE1
   334                           
   335                           	psect	cstackBANK0
   336  0000B8                     __pcstackBANK0:
   337                           	opt stack 0
   338  0000B8                     xInterruptTaskCreate@pvTaskCode:
   339                           	opt stack 0
   340                           
   341                           ; 4 bytes @ 0x0
   342  0000B8                     	ds	4
   343  0000BC                     xInterruptTaskCreate@Id:
   344                           	opt stack 0
   345                           
   346                           ; 1 bytes @ 0x4
   347  0000BC                     	ds	1
   348  0000BD                     xInterruptTaskCreate@Prior:
   349                           	opt stack 0
   350                           
   351                           ; 1 bytes @ 0x5
   352  0000BD                     	ds	1
   353  0000BE                     ??_High_Priority_Interrupt:
   354                           
   355                           ; 0 bytes @ 0x6
   356  0000BE                     	ds	14
   357                           tblptru	equ	0xFF8
   358                           tblptrh	equ	0xFF7
   359                           tblptrl	equ	0xFF6
   360                           tablat	equ	0xFF5
   361                           postinc0	equ	0xFEE
   362                           wreg	equ	0xFE8
   363                           postdec1	equ	0xFE5
   364                           fsr1l	equ	0xFE1
   365                           
   366                           	psect	cstackCOMRAM
   367  00001B                     __pcstackCOMRAM:
   368                           	opt stack 0
   369  00001B                     ??_OSRun:
   370  00001B                     mailBox_init_conection@writer:
   371                           	opt stack 0
   372                           
   373                           ; 1 bytes @ 0x0
   374  00001B                     	ds	1
   375  00001C                     mailBox_init_conection@reader:
   376                           	opt stack 0
   377  00001C                     WritingMailBox@reader:
   378                           	opt stack 0
   379  00001C                     DoneWritting@reader:
   380                           	opt stack 0
   381  00001C                     DoneReading@writter:
   382                           	opt stack 0
   383  00001C                     ReadingMailBox@r:
   384                           	opt stack 0
   385  00001C                     vTaskDelay@delayms:
   386                           	opt stack 0
   387  00001C                     xTaskCreate@pvTaskCode:
   388                           	opt stack 0
   389                           
   390                           ; 4 bytes @ 0x1
   391  00001C                     	ds	1
   392  00001D                     ??_WritingMailBox:
   393                           
   394                           ; 0 bytes @ 0x2
   395  00001D                     	ds	1
   396  00001E                     ??_ReadingMailBox:
   397  00001E                     ??_PWM1:
   398  00001E                     ??_PWM2:
   399  00001E                     ??_PWM3:
   400  00001E                     ??_PWM4:
   401  00001E                     ??_PWM5:
   402  00001E                     ??_PWM6:
   403                           
   404                           ; 0 bytes @ 0x3
   405  00001E                     	ds	2
   406  000020                     WritingMailBox@data:
   407                           	opt stack 0
   408  000020                     xTaskCreate@Id:
   409                           	opt stack 0
   410                           
   411                           ; 1 bytes @ 0x5
   412  000020                     	ds	1
   413  000021                     xTaskCreate@Prior:
   414                           	opt stack 0
   415                           
   416                           ; 1 bytes @ 0x6
   417  000021                     	ds	1
   418  000022                     
   419                           ; 0 bytes @ 0x7
   420  000022                     	ds	1
   421  000023                     ReadingMailBox@writter:
   422                           	opt stack 0
   423                           
   424                           ; 1 bytes @ 0x8
   425  000023                     	ds	1
   426  000024                     ??_Low_Priority_Interrupt:
   427                           
   428                           ; 0 bytes @ 0x9
   429  000024                     	ds	17
   430  000035                     tblptru	equ	0xFF8
   431                           tblptrh	equ	0xFF7
   432                           tblptrl	equ	0xFF6
   433                           tablat	equ	0xFF5
   434                           postinc0	equ	0xFEE
   435                           wreg	equ	0xFE8
   436                           postdec1	equ	0xFE5
   437                           fsr1l	equ	0xFE1
   438                           
   439                           ; 0 bytes @ 0x1A
   440 ;;
   441 ;;Main: autosize = 0, tempsize = 0, incstack = 0, save=0
   442 ;;
   443 ;; *************** function _main *****************
   444 ;; Defined at:
   445 ;;		line 249 in file "main.c"
   446 ;; Parameters:    Size  Location     Type
   447 ;;		None
   448 ;; Auto vars:     Size  Location     Type
   449 ;;		None
   450 ;; Return value:  Size  Location     Type
   451 ;;		None               void
   452 ;; Registers used:
   453 ;;		wreg, fsr2l, fsr2h, status,2, status,0, prodl, prodh, cstack
   454 ;; Tracked objects:
   455 ;;		On entry : 0/0
   456 ;;		On exit  : 0/0
   457 ;;		Unchanged: 0/0
   458 ;; Data sizes:     COMRAM   BANK0   BANK1   BANK2   BANK3   BANK4   BANK5   BANK6   BANK7
   459 ;;      Params:         0       0       0       0       0       0       0       0       0
   460 ;;      Locals:         0       0       0       0       0       0       0       0       0
   461 ;;      Temps:          0       0       0       0       0       0       0       0       0
   462 ;;      Totals:         0       0       0       0       0       0       0       0       0
   463 ;;Total ram usage:        0 bytes
   464 ;; Hardware stack levels required when called:    7
   465 ;; This function calls:
   466 ;;		_OSInit
   467 ;; This function is called by:
   468 ;;		Startup code after reset
   469 ;; This function uses a non-reentrant model
   470 ;;
   471                           
   472                           	psect	text0
   473  001578                     __ptext0:
   474                           	opt stack 0
   475  001578                     _main:
   476                           	opt stack 24
   477                           
   478                           ;main.c: 259: OSInit();
   479                           
   480                           ;incstack = 0
   481  001578  EC95  F006         	call	_OSInit	;wreg free
   482                           
   483                           ;main.c: 260: GIE=1;
   484  00157C  8EF2               	bsf	intcon,7,c	;volatile
   485                           
   486                           ;main.c: 265: INTCON |= 0x12;
   487  00157E  0E12               	movlw	18
   488  001580  12F2               	iorwf	intcon,f,c	;volatile
   489  001582  F000               	nop		;# 
   490  001584  D7FE               	goto	L2
   491  001586                     __end_of_main:
   492                           	opt stack 0
   493                           tblptru	equ	0xFF8
   494                           tblptrh	equ	0xFF7
   495                           tblptrl	equ	0xFF6
   496                           tablat	equ	0xFF5
   497                           intcon	equ	0xFF2
   498                           postinc0	equ	0xFEE
   499                           wreg	equ	0xFE8
   500                           postdec1	equ	0xFE5
   501                           fsr1l	equ	0xFE1
   502                           
   503 ;; *************** function _OSInit *****************
   504 ;; Defined at:
   505 ;;		line 331 in file "Structure.c"
   506 ;; Parameters:    Size  Location     Type
   507 ;;		None
   508 ;; Auto vars:     Size  Location     Type
   509 ;;		None
   510 ;; Return value:  Size  Location     Type
   511 ;;		None               void
   512 ;; Registers used:
   513 ;;		wreg, fsr2l, fsr2h, status,2, status,0, prodl, prodh
   514 ;; Tracked objects:
   515 ;;		On entry : 0/0
   516 ;;		On exit  : 0/0
   517 ;;		Unchanged: 0/0
   518 ;; Data sizes:     COMRAM   BANK0   BANK1   BANK2   BANK3   BANK4   BANK5   BANK6   BANK7
   519 ;;      Params:         0       0       0       0       0       0       0       0       0
   520 ;;      Locals:         0       0       0       0       0       0       0       0       0
   521 ;;      Temps:          0       0       0       0       0       0       0       0       0
   522 ;;      Totals:         0       0       0       0       0       0       0       0       0
   523 ;;Total ram usage:        0 bytes
   524 ;; Hardware stack levels used:    1
   525 ;; Hardware stack levels required when called:    6
   526 ;; This function calls:
   527 ;;		Nothing
   528 ;; This function is called by:
   529 ;;		_main
   530 ;; This function uses a non-reentrant model
   531 ;;
   532                           
   533                           	psect	text1
   534  000D2A                     __ptext1:
   535                           	opt stack 0
   536  000D2A                     _OSInit:
   537                           	opt stack 24
   538                           
   539                           ;Structure.c: 332: GIE = 0;
   540                           
   541                           ;incstack = 0
   542  000D2A  9EF2               	bcf	intcon,7,c	;volatile
   543                           
   544                           ;Structure.c: 333: for(i=0;i<11 ; i++){
   545  000D2C  0E00               	movlw	0
   546  000D2E  6E0A               	movwf	_i,c
   547  000D30                     l1703:
   548  000D30  0E0A               	movlw	10
   549  000D32  640A               	cpfsgt	_i,c
   550  000D34  D001               	goto	l1707
   551  000D36  D048               	goto	l1713
   552  000D38                     l1707:
   553                           
   554                           ;Structure.c: 334: TaskArray[i].Priority=255;
   555  000D38  500A               	movf	_i,w,c
   556  000D3A  0D15               	mullw	21
   557  000D3C  0E05               	movlw	5
   558  000D3E  26F3               	addwf	prodl,f,c
   559  000D40  0E00               	movlw	0
   560  000D42  22F4               	addwfc	prodh,f,c
   561  000D44  0E00               	movlw	low _TaskArray
   562  000D46  24F3               	addwf	prodl,w,c
   563  000D48  6ED9               	movwf	fsr2l,c
   564  000D4A  0E01               	movlw	high _TaskArray
   565  000D4C  20F4               	addwfc	prodh,w,c
   566  000D4E  6EDA               	movwf	fsr2h,c
   567  000D50  0EFF               	movlw	255
   568  000D52  6EDF               	movwf	indf2,c
   569                           
   570                           ;Structure.c: 335: TaskArray[i].Id=i;
   571  000D54  500A               	movf	_i,w,c
   572  000D56  0D15               	mullw	21
   573  000D58  0E04               	movlw	4
   574  000D5A  26F3               	addwf	prodl,f,c
   575  000D5C  0E00               	movlw	0
   576  000D5E  22F4               	addwfc	prodh,f,c
   577  000D60  0E00               	movlw	low _TaskArray
   578  000D62  24F3               	addwf	prodl,w,c
   579  000D64  6ED9               	movwf	fsr2l,c
   580  000D66  0E01               	movlw	high _TaskArray
   581  000D68  20F4               	addwfc	prodh,w,c
   582  000D6A  6EDA               	movwf	fsr2h,c
   583  000D6C  C00A  FFDF         	movff	_i,indf2
   584                           
   585                           ;Structure.c: 336: TaskArray[i].state=0;
   586  000D70  500A               	movf	_i,w,c
   587  000D72  0D15               	mullw	21
   588  000D74  0E03               	movlw	3
   589  000D76  26F3               	addwf	prodl,f,c
   590  000D78  0E00               	movlw	0
   591  000D7A  22F4               	addwfc	prodh,f,c
   592  000D7C  0E00               	movlw	low _TaskArray
   593  000D7E  24F3               	addwf	prodl,w,c
   594  000D80  6ED9               	movwf	fsr2l,c
   595  000D82  0E01               	movlw	high _TaskArray
   596  000D84  20F4               	addwfc	prodh,w,c
   597  000D86  6EDA               	movwf	fsr2h,c
   598  000D88  0E00               	movlw	0
   599  000D8A  6EDF               	movwf	indf2,c
   600                           
   601                           ;Structure.c: 337: MailBoxArray[i].Available=0;
   602  000D8C  500A               	movf	_i,w,c
   603  000D8E  0D08               	mullw	8
   604  000D90  0E02               	movlw	2
   605  000D92  26F3               	addwf	prodl,f,c
   606  000D94  0E00               	movlw	0
   607  000D96  22F4               	addwfc	prodh,f,c
   608  000D98  0E60               	movlw	low _MailBoxArray
   609  000D9A  24F3               	addwf	prodl,w,c
   610  000D9C  6ED9               	movwf	fsr2l,c
   611  000D9E  0E00               	movlw	high _MailBoxArray
   612  000DA0  20F4               	addwfc	prodh,w,c
   613  000DA2  6EDA               	movwf	fsr2h,c
   614  000DA4  0E00               	movlw	0
   615  000DA6  6EDF               	movwf	indf2,c
   616                           
   617                           ;Structure.c: 338: MailBoxArray[i].Connected=0;
   618  000DA8  500A               	movf	_i,w,c
   619  000DAA  0D08               	mullw	8
   620  000DAC  0E06               	movlw	6
   621  000DAE  26F3               	addwf	prodl,f,c
   622  000DB0  0E00               	movlw	0
   623  000DB2  22F4               	addwfc	prodh,f,c
   624  000DB4  0E60               	movlw	low _MailBoxArray
   625  000DB6  24F3               	addwf	prodl,w,c
   626  000DB8  6ED9               	movwf	fsr2l,c
   627  000DBA  0E00               	movlw	high _MailBoxArray
   628  000DBC  20F4               	addwfc	prodh,w,c
   629  000DBE  6EDA               	movwf	fsr2h,c
   630  000DC0  0E00               	movlw	0
   631  000DC2  6EDF               	movwf	indf2,c
   632  000DC4  2A0A               	incf	_i,f,c
   633  000DC6  D7B4               	goto	l1703
   634  000DC8                     l1713:
   635                           
   636                           ;Structure.c: 339: }
   637                           ;Structure.c: 342: OSCCON |= 0;
   638  000DC8  50D3               	movf	4051,w,c	;volatile
   639                           
   640                           ;Structure.c: 343: OSCCON |= 0x70;
   641  000DCA  0E70               	movlw	112
   642  000DCC  12D3               	iorwf	4051,f,c	;volatile
   643                           
   644                           ;Structure.c: 346: T0CONbits.TMR0ON=1;
   645  000DCE  8ED5               	bsf	4053,7,c	;volatile
   646                           
   647                           ;Structure.c: 347: T0CONbits.T08BIT=1;
   648  000DD0  8CD5               	bsf	4053,6,c	;volatile
   649                           
   650                           ;Structure.c: 348: T0CONbits.T0CS=0;
   651  000DD2  9AD5               	bcf	4053,5,c	;volatile
   652                           
   653                           ;Structure.c: 349: T0CONbits.T0SE=0;
   654  000DD4  98D5               	bcf	4053,4,c	;volatile
   655                           
   656                           ;Structure.c: 350: T0CONbits.PSA=0;
   657  000DD6  96D5               	bcf	4053,3,c	;volatile
   658                           
   659                           ;Structure.c: 351: T0CON|= 0x07;
   660  000DD8  0E07               	movlw	7
   661  000DDA  12D5               	iorwf	4053,f,c	;volatile
   662                           
   663                           ;Structure.c: 352: T0CONbits.T0PS=0x07;
   664  000DDC  80D5               	bsf	4053,0,c	;volatile
   665  000DDE  82D5               	bsf	4053,1,c	;volatile
   666  000DE0  84D5               	bsf	4053,2,c	;volatile
   667                           
   668                           ;Structure.c: 353: TMR0IE=1;
   669  000DE2  8AF2               	bsf	intcon,5,c	;volatile
   670                           
   671                           ;Structure.c: 354: PEIE=1;
   672  000DE4  8CF2               	bsf	intcon,6,c	;volatile
   673                           
   674                           ;Structure.c: 355: TMR0ON=1;
   675  000DE6  8ED5               	bsf	4053,7,c	;volatile
   676  000DE8  0012               	return		;funcret
   677  000DEA                     __end_of_OSInit:
   678                           	opt stack 0
   679                           tblptru	equ	0xFF8
   680                           tblptrh	equ	0xFF7
   681                           tblptrl	equ	0xFF6
   682                           tablat	equ	0xFF5
   683                           prodh	equ	0xFF4
   684                           prodl	equ	0xFF3
   685                           intcon	equ	0xFF2
   686                           postinc0	equ	0xFEE
   687                           wreg	equ	0xFE8
   688                           postdec1	equ	0xFE5
   689                           fsr1l	equ	0xFE1
   690                           indf2	equ	0xFDF
   691                           fsr2h	equ	0xFDA
   692                           fsr2l	equ	0xFD9
   693                           
   694 ;; *************** function _Low_Priority_Interrupt *****************
   695 ;; Defined at:
   696 ;;		line 239 in file "main.c"
   697 ;; Parameters:    Size  Location     Type
   698 ;;		None
   699 ;; Auto vars:     Size  Location     Type
   700 ;;		None
   701 ;; Return value:  Size  Location     Type
   702 ;;		None               void
   703 ;; Registers used:
   704 ;;		wreg, fsr1l, fsr1h, fsr2l, fsr2h, status,2, status,0, prodl, prodh, cstack
   705 ;; Tracked objects:
   706 ;;		On entry : 0/0
   707 ;;		On exit  : 0/0
   708 ;;		Unchanged: 0/0
   709 ;; Data sizes:     COMRAM   BANK0   BANK1   BANK2   BANK3   BANK4   BANK5   BANK6   BANK7
   710 ;;      Params:         0       0       0       0       0       0       0       0       0
   711 ;;      Locals:         0       0       0       0       0       0       0       0       0
   712 ;;      Temps:         17       0       0       0       0       0       0       0       0
   713 ;;      Totals:        17       0       0       0       0       0       0       0       0
   714 ;;Total ram usage:       17 bytes
   715 ;; Hardware stack levels used:    1
   716 ;; Hardware stack levels required when called:    5
   717 ;; This function calls:
   718 ;;		_FunctionA
   719 ;;		_FunctionB
   720 ;;		_FunctionC
   721 ;;		_FunctionD
   722 ;;		_FunctionE
   723 ;;		_PWM1
   724 ;;		_PWM2
   725 ;;		_PWM3
   726 ;;		_PWM4
   727 ;;		_PWM5
   728 ;;		_PWM6
   729 ;;		_PWM_activator
   730 ;;		_PWM_init
   731 ;; This function is called by:
   732 ;;		Interrupt level 1
   733 ;; This function uses a non-reentrant model
   734 ;;
   735                           
   736                           	psect	intcodelo
   737  000018                     __pintcodelo:
   738                           	opt stack 0
   739  000018                     _Low_Priority_Interrupt:
   740                           	opt stack 24
   741                           
   742                           ;incstack = 0
   743  000018  8044               	bsf	btemp,0,c	;set compiler interrupt flag (level 1)
   744  00001A  CFD8 F024          	movff	status,??_Low_Priority_Interrupt
   745  00001E  CFE8 F025          	movff	wreg,??_Low_Priority_Interrupt+1
   746  000022  CFE0 F026          	movff	bsr,??_Low_Priority_Interrupt+2
   747  000026  CFFA F027          	movff	pclath,??_Low_Priority_Interrupt+3
   748  00002A  CFFB F028          	movff	pclatu,??_Low_Priority_Interrupt+4
   749  00002E  CFE9 F029          	movff	fsr0l,??_Low_Priority_Interrupt+5
   750  000032  CFEA F02A          	movff	fsr0h,??_Low_Priority_Interrupt+6
   751  000036  CFE1 F02B          	movff	fsr1l,??_Low_Priority_Interrupt+7
   752  00003A  CFE2 F02C          	movff	fsr1h,??_Low_Priority_Interrupt+8
   753  00003E  CFD9 F02D          	movff	fsr2l,??_Low_Priority_Interrupt+9
   754  000042  CFDA F02E          	movff	fsr2h,??_Low_Priority_Interrupt+10
   755  000046  CFF3 F02F          	movff	prodl,??_Low_Priority_Interrupt+11
   756  00004A  CFF4 F030          	movff	prodh,??_Low_Priority_Interrupt+12
   757  00004E  CFF6 F031          	movff	tblptrl,??_Low_Priority_Interrupt+13
   758  000052  CFF7 F032          	movff	tblptrh,??_Low_Priority_Interrupt+14
   759  000056  CFF8 F033          	movff	tblptru,??_Low_Priority_Interrupt+15
   760  00005A  CFF5 F034          	movff	tablat,??_Low_Priority_Interrupt+16
   761                           
   762                           ;main.c: 241: FunctionA(); FunctionB(); FunctionC(); FunctionD(); FunctionE();
   763  00005E  EC48  F009         	call	_FunctionA	;wreg free
   764  000062  EC7C  F009         	call	_FunctionB	;wreg free
   765  000066  ECEF  F009         	call	_FunctionC	;wreg free
   766  00006A  ECD4  F009         	call	_FunctionD	;wreg free
   767  00006E  ECA6  F00A         	call	_FunctionE	;wreg free
   768                           
   769                           ;main.c: 243: PWM_init();
   770  000072  ECC3  F00A         	call	_PWM_init	;wreg free
   771                           
   772                           ;main.c: 244: PWM1();PWM2();PWM3();PWM4();PWM5();PWM6();
   773  000076  EC7C  F00A         	call	_PWM1	;wreg free
   774  00007A  EC65  F00A         	call	_PWM2	;wreg free
   775  00007E  EC4E  F00A         	call	_PWM3	;wreg free
   776  000082  EC37  F00A         	call	_PWM4	;wreg free
   777  000086  EC20  F00A         	call	_PWM5	;wreg free
   778  00008A  EC09  F00A         	call	_PWM6	;wreg free
   779                           
   780                           ;main.c: 245: PWM_activator();
   781  00008E  ECB0  F007         	call	_PWM_activator	;wreg free
   782  000092  C034  FFF5         	movff	??_Low_Priority_Interrupt+16,tablat
   783  000096  C033  FFF8         	movff	??_Low_Priority_Interrupt+15,tblptru
   784  00009A  C032  FFF7         	movff	??_Low_Priority_Interrupt+14,tblptrh
   785  00009E  C031  FFF6         	movff	??_Low_Priority_Interrupt+13,tblptrl
   786  0000A2  C030  FFF4         	movff	??_Low_Priority_Interrupt+12,prodh
   787  0000A6  C02F  FFF3         	movff	??_Low_Priority_Interrupt+11,prodl
   788  0000AA  C02E  FFDA         	movff	??_Low_Priority_Interrupt+10,fsr2h
   789  0000AE  C02D  FFD9         	movff	??_Low_Priority_Interrupt+9,fsr2l
   790  0000B2  C02C  FFE2         	movff	??_Low_Priority_Interrupt+8,fsr1h
   791  0000B6  C02B  FFE1         	movff	??_Low_Priority_Interrupt+7,fsr1l
   792  0000BA  C02A  FFEA         	movff	??_Low_Priority_Interrupt+6,fsr0h
   793  0000BE  C029  FFE9         	movff	??_Low_Priority_Interrupt+5,fsr0l
   794  0000C2  C028  FFFB         	movff	??_Low_Priority_Interrupt+4,pclatu
   795  0000C6  C027  FFFA         	movff	??_Low_Priority_Interrupt+3,pclath
   796  0000CA  C026  FFE0         	movff	??_Low_Priority_Interrupt+2,bsr
   797  0000CE  C025  FFE8         	movff	??_Low_Priority_Interrupt+1,wreg
   798  0000D2  C024  FFD8         	movff	??_Low_Priority_Interrupt,status
   799  0000D6  9044               	bcf	btemp,0,c	;clear compiler interrupt flag (level 1)
   800  0000D8  0010               	retfie	
   801  0000DA                     __end_of_Low_Priority_Interrupt:
   802                           	opt stack 0
   803                           pclatu	equ	0xFFB
   804                           pclath	equ	0xFFA
   805                           tblptru	equ	0xFF8
   806                           tblptrh	equ	0xFF7
   807                           tblptrl	equ	0xFF6
   808                           tablat	equ	0xFF5
   809                           prodh	equ	0xFF4
   810                           prodl	equ	0xFF3
   811                           intcon	equ	0xFF2
   812                           postinc0	equ	0xFEE
   813                           fsr0h	equ	0xFEA
   814                           fsr0l	equ	0xFE9
   815                           wreg	equ	0xFE8
   816                           postdec1	equ	0xFE5
   817                           fsr1h	equ	0xFE2
   818                           fsr1l	equ	0xFE1
   819                           bsr	equ	0xFE0
   820                           indf2	equ	0xFDF
   821                           fsr2h	equ	0xFDA
   822                           fsr2l	equ	0xFD9
   823                           status	equ	0xFD8
   824                           
   825 ;; *************** function _PWM_init *****************
   826 ;; Defined at:
   827 ;;		line 128 in file "main.c"
   828 ;; Parameters:    Size  Location     Type
   829 ;;		None
   830 ;; Auto vars:     Size  Location     Type
   831 ;;		None
   832 ;; Return value:  Size  Location     Type
   833 ;;		None               void
   834 ;; Registers used:
   835 ;;		wreg, status,2
   836 ;; Tracked objects:
   837 ;;		On entry : 0/0
   838 ;;		On exit  : 0/0
   839 ;;		Unchanged: 0/0
   840 ;; Data sizes:     COMRAM   BANK0   BANK1   BANK2   BANK3   BANK4   BANK5   BANK6   BANK7
   841 ;;      Params:         0       0       0       0       0       0       0       0       0
   842 ;;      Locals:         0       0       0       0       0       0       0       0       0
   843 ;;      Temps:          0       0       0       0       0       0       0       0       0
   844 ;;      Totals:         0       0       0       0       0       0       0       0       0
   845 ;;Total ram usage:        0 bytes
   846 ;; Hardware stack levels used:    1
   847 ;; Hardware stack levels required when called:    2
   848 ;; This function calls:
   849 ;;		Nothing
   850 ;; This function is called by:
   851 ;;		_Low_Priority_Interrupt
   852 ;; This function uses a non-reentrant model
   853 ;;
   854                           
   855                           	psect	text3
   856  001586                     __ptext3:
   857                           	opt stack 0
   858  001586                     _PWM_init:
   859                           	opt stack 26
   860                           
   861                           ;main.c: 129: LATB = 0x00;
   862                           
   863                           ;incstack = 0
   864  001586  0E00               	movlw	0
   865  001588  6E8A               	movwf	3978,c	;volatile
   866                           
   867                           ;main.c: 130: TRISB = 0x00;
   868  00158A  0E00               	movlw	0
   869  00158C  6E93               	movwf	3987,c	;volatile
   870  00158E  0012               	return		;funcret
   871  001590                     __end_of_PWM_init:
   872                           	opt stack 0
   873                           pclatu	equ	0xFFB
   874                           pclath	equ	0xFFA
   875                           tblptru	equ	0xFF8
   876                           tblptrh	equ	0xFF7
   877                           tblptrl	equ	0xFF6
   878                           tablat	equ	0xFF5
   879                           prodh	equ	0xFF4
   880                           prodl	equ	0xFF3
   881                           intcon	equ	0xFF2
   882                           postinc0	equ	0xFEE
   883                           fsr0h	equ	0xFEA
   884                           fsr0l	equ	0xFE9
   885                           wreg	equ	0xFE8
   886                           postdec1	equ	0xFE5
   887                           fsr1h	equ	0xFE2
   888                           fsr1l	equ	0xFE1
   889                           bsr	equ	0xFE0
   890                           indf2	equ	0xFDF
   891                           fsr2h	equ	0xFDA
   892                           fsr2l	equ	0xFD9
   893                           status	equ	0xFD8
   894                           
   895 ;; *************** function _PWM_activator *****************
   896 ;; Defined at:
   897 ;;		line 228 in file "main.c"
   898 ;; Parameters:    Size  Location     Type
   899 ;;		None
   900 ;; Auto vars:     Size  Location     Type
   901 ;;		None
   902 ;; Return value:  Size  Location     Type
   903 ;;		None               void
   904 ;; Registers used:
   905 ;;		wreg, fsr2l, fsr2h, status,2, status,0, prodl, prodh, cstack
   906 ;; Tracked objects:
   907 ;;		On entry : 0/0
   908 ;;		On exit  : 0/0
   909 ;;		Unchanged: 0/0
   910 ;; Data sizes:     COMRAM   BANK0   BANK1   BANK2   BANK3   BANK4   BANK5   BANK6   BANK7
   911 ;;      Params:         0       0       0       0       0       0       0       0       0
   912 ;;      Locals:         0       0       0       0       0       0       0       0       0
   913 ;;      Temps:          0       0       0       0       0       0       0       0       0
   914 ;;      Totals:         0       0       0       0       0       0       0       0       0
   915 ;;Total ram usage:        0 bytes
   916 ;; Hardware stack levels used:    1
   917 ;; Hardware stack levels required when called:    4
   918 ;; This function calls:
   919 ;;		_vTaskDelete
   920 ;;		_xTaskCreate
   921 ;; This function is called by:
   922 ;;		_Low_Priority_Interrupt
   923 ;; This function uses a non-reentrant model
   924 ;;
   925                           
   926                           	psect	text4
   927  000F60                     __ptext4:
   928                           	opt stack 0
   929  000F60                     _PWM_activator:
   930                           	opt stack 24
   931                           
   932                           ;main.c: 229: xTaskCreate(&PWM1, 1,5);
   933                           
   934                           ;incstack = 0
   935  000F60  0EF8               	movlw	low _PWM1
   936  000F62  6E1C               	movwf	xTaskCreate@pvTaskCode,c
   937  000F64  0E14               	movlw	high _PWM1
   938  000F66  6E1D               	movwf	xTaskCreate@pvTaskCode+1,c
   939  000F68  0E00               	movlw	low (_PWM1 shr (0+16))
   940  000F6A  6E1E               	movwf	xTaskCreate@pvTaskCode+2,c
   941  000F6C  0E00               	movlw	high (_PWM1 shr (0+16))
   942  000F6E  6E1F               	movwf	xTaskCreate@pvTaskCode+3,c
   943  000F70  0E01               	movlw	1
   944  000F72  6E20               	movwf	xTaskCreate@Id,c
   945  000F74  0E05               	movlw	5
   946  000F76  6E21               	movwf	xTaskCreate@Prior,c
   947  000F78  EC90  F004         	call	_xTaskCreate	;wreg free
   948                           
   949                           ;main.c: 230: xTaskCreate(&PWM2, 2,5);
   950  000F7C  0ECA               	movlw	low _PWM2
   951  000F7E  6E1C               	movwf	xTaskCreate@pvTaskCode,c
   952  000F80  0E14               	movlw	high _PWM2
   953  000F82  6E1D               	movwf	xTaskCreate@pvTaskCode+1,c
   954  000F84  0E00               	movlw	low (_PWM2 shr (0+16))
   955  000F86  6E1E               	movwf	xTaskCreate@pvTaskCode+2,c
   956  000F88  0E00               	movlw	high (_PWM2 shr (0+16))
   957  000F8A  6E1F               	movwf	xTaskCreate@pvTaskCode+3,c
   958  000F8C  0E02               	movlw	2
   959  000F8E  6E20               	movwf	xTaskCreate@Id,c
   960  000F90  0E05               	movlw	5
   961  000F92  6E21               	movwf	xTaskCreate@Prior,c
   962  000F94  EC90  F004         	call	_xTaskCreate	;wreg free
   963                           
   964                           ;main.c: 231: xTaskCreate(&PWM3, 3,5);
   965  000F98  0E9C               	movlw	low _PWM3
   966  000F9A  6E1C               	movwf	xTaskCreate@pvTaskCode,c
   967  000F9C  0E14               	movlw	high _PWM3
   968  000F9E  6E1D               	movwf	xTaskCreate@pvTaskCode+1,c
   969  000FA0  0E00               	movlw	low (_PWM3 shr (0+16))
   970  000FA2  6E1E               	movwf	xTaskCreate@pvTaskCode+2,c
   971  000FA4  0E00               	movlw	high (_PWM3 shr (0+16))
   972  000FA6  6E1F               	movwf	xTaskCreate@pvTaskCode+3,c
   973  000FA8  0E03               	movlw	3
   974  000FAA  6E20               	movwf	xTaskCreate@Id,c
   975  000FAC  0E05               	movlw	5
   976  000FAE  6E21               	movwf	xTaskCreate@Prior,c
   977  000FB0  EC90  F004         	call	_xTaskCreate	;wreg free
   978                           
   979                           ;main.c: 232: xTaskCreate(&PWM4, 4,5);
   980  000FB4  0E6E               	movlw	low _PWM4
   981  000FB6  6E1C               	movwf	xTaskCreate@pvTaskCode,c
   982  000FB8  0E14               	movlw	high _PWM4
   983  000FBA  6E1D               	movwf	xTaskCreate@pvTaskCode+1,c
   984  000FBC  0E00               	movlw	low (_PWM4 shr (0+16))
   985  000FBE  6E1E               	movwf	xTaskCreate@pvTaskCode+2,c
   986  000FC0  0E00               	movlw	high (_PWM4 shr (0+16))
   987  000FC2  6E1F               	movwf	xTaskCreate@pvTaskCode+3,c
   988  000FC4  0E04               	movlw	4
   989  000FC6  6E20               	movwf	xTaskCreate@Id,c
   990  000FC8  0E05               	movlw	5
   991  000FCA  6E21               	movwf	xTaskCreate@Prior,c
   992  000FCC  EC90  F004         	call	_xTaskCreate	;wreg free
   993                           
   994                           ;main.c: 233: xTaskCreate(&PWM5, 5,5);
   995  000FD0  0E40               	movlw	low _PWM5
   996  000FD2  6E1C               	movwf	xTaskCreate@pvTaskCode,c
   997  000FD4  0E14               	movlw	high _PWM5
   998  000FD6  6E1D               	movwf	xTaskCreate@pvTaskCode+1,c
   999  000FD8  0E00               	movlw	low (_PWM5 shr (0+16))
  1000  000FDA  6E1E               	movwf	xTaskCreate@pvTaskCode+2,c
  1001  000FDC  0E00               	movlw	high (_PWM5 shr (0+16))
  1002  000FDE  6E1F               	movwf	xTaskCreate@pvTaskCode+3,c
  1003  000FE0  0E05               	movlw	5
  1004  000FE2  6E20               	movwf	xTaskCreate@Id,c
  1005  000FE4  0E05               	movlw	5
  1006  000FE6  6E21               	movwf	xTaskCreate@Prior,c
  1007  000FE8  EC90  F004         	call	_xTaskCreate	;wreg free
  1008                           
  1009                           ;main.c: 234: xTaskCreate(&PWM6, 6,5);
  1010  000FEC  0E12               	movlw	low _PWM6
  1011  000FEE  6E1C               	movwf	xTaskCreate@pvTaskCode,c
  1012  000FF0  0E14               	movlw	high _PWM6
  1013  000FF2  6E1D               	movwf	xTaskCreate@pvTaskCode+1,c
  1014  000FF4  0E00               	movlw	low (_PWM6 shr (0+16))
  1015  000FF6  6E1E               	movwf	xTaskCreate@pvTaskCode+2,c
  1016  000FF8  0E00               	movlw	high (_PWM6 shr (0+16))
  1017  000FFA  6E1F               	movwf	xTaskCreate@pvTaskCode+3,c
  1018  000FFC  0E06               	movlw	6
  1019  000FFE  6E20               	movwf	xTaskCreate@Id,c
  1020  001000  0E05               	movlw	5
  1021  001002  6E21               	movwf	xTaskCreate@Prior,c
  1022  001004  EC90  F004         	call	_xTaskCreate	;wreg free
  1023  001008  F000               	nop		;# 
  1024                           
  1025                           ;main.c: 236: vTaskDelete();
  1026  00100A  EC93  F00A         	call	_vTaskDelete	;wreg free
  1027  00100E  0012               	return		;funcret
  1028  001010                     __end_of_PWM_activator:
  1029                           	opt stack 0
  1030                           pclatu	equ	0xFFB
  1031                           pclath	equ	0xFFA
  1032                           tblptru	equ	0xFF8
  1033                           tblptrh	equ	0xFF7
  1034                           tblptrl	equ	0xFF6
  1035                           tablat	equ	0xFF5
  1036                           prodh	equ	0xFF4
  1037                           prodl	equ	0xFF3
  1038                           intcon	equ	0xFF2
  1039                           postinc0	equ	0xFEE
  1040                           fsr0h	equ	0xFEA
  1041                           fsr0l	equ	0xFE9
  1042                           wreg	equ	0xFE8
  1043                           postdec1	equ	0xFE5
  1044                           fsr1h	equ	0xFE2
  1045                           fsr1l	equ	0xFE1
  1046                           bsr	equ	0xFE0
  1047                           indf2	equ	0xFDF
  1048                           fsr2h	equ	0xFDA
  1049                           fsr2l	equ	0xFD9
  1050                           status	equ	0xFD8
  1051                           
  1052 ;; *************** function _PWM6 *****************
  1053 ;; Defined at:
  1054 ;;		line 214 in file "main.c"
  1055 ;; Parameters:    Size  Location     Type
  1056 ;;		None
  1057 ;; Auto vars:     Size  Location     Type
  1058 ;;		None
  1059 ;; Return value:  Size  Location     Type
  1060 ;;		None               void
  1061 ;; Registers used:
  1062 ;;		wreg, fsr2l, fsr2h, status,2, status,0, prodl, prodh, cstack
  1063 ;; Tracked objects:
  1064 ;;		On entry : 0/0
  1065 ;;		On exit  : 0/0
  1066 ;;		Unchanged: 0/0
  1067 ;; Data sizes:     COMRAM   BANK0   BANK1   BANK2   BANK3   BANK4   BANK5   BANK6   BANK7
  1068 ;;      Params:         0       0       0       0       0       0       0       0       0
  1069 ;;      Locals:         0       0       0       0       0       0       0       0       0
  1070 ;;      Temps:          2       0       0       0       0       0       0       0       0
  1071 ;;      Totals:         2       0       0       0       0       0       0       0       0
  1072 ;;Total ram usage:        2 bytes
  1073 ;; Hardware stack levels used:    1
  1074 ;; Hardware stack levels required when called:    4
  1075 ;; This function calls:
  1076 ;;		_vTaskDelay
  1077 ;;		_vTaskDelete
  1078 ;; This function is called by:
  1079 ;;		_PWM_activator
  1080 ;;		_Low_Priority_Interrupt
  1081 ;; This function uses a non-reentrant model
  1082 ;;
  1083                           
  1084                           	psect	text5
  1085  001412                     __ptext5:
  1086                           	opt stack 0
  1087  001412                     _PWM6:
  1088                           	opt stack 24
  1089  001412                     i1l122:
  1090                           
  1091                           ;main.c: 218: LATBbits.LATB5= 1;
  1092  001412  8A8A               	bsf	3978,5,c	;volatile
  1093                           
  1094                           ;main.c: 219: vTaskDelay(dutyCycle6);
  1095  001414  C03E  F01C         	movff	_dutyCycle6,vTaskDelay@delayms
  1096  001418  6A1D               	clrf	vTaskDelay@delayms+1,c
  1097  00141A  EC53  F007         	call	_vTaskDelay	;wreg free
  1098                           
  1099                           ;main.c: 222: LATBbits.LATB5= 0;
  1100  00141E  9A8A               	bcf	3978,5,c	;volatile
  1101                           
  1102                           ;main.c: 223: vTaskDelay(10-dutyCycle6);
  1103  001420  503E               	movf	_dutyCycle6,w,c
  1104  001422  6E1E               	movwf	??_PWM6& (0+255),c
  1105  001424  6A1F               	clrf	(??_PWM6+1)& (0+255),c
  1106  001426  1E1E               	comf	??_PWM6,f,c
  1107  001428  1E1F               	comf	??_PWM6+1,f,c
  1108  00142A  4A1E               	infsnz	??_PWM6,f,c
  1109  00142C  2A1F               	incf	??_PWM6+1,f,c
  1110  00142E  0E0A               	movlw	10
  1111  001430  241E               	addwf	??_PWM6,w,c
  1112  001432  6E1C               	movwf	vTaskDelay@delayms,c
  1113  001434  0E00               	movlw	0
  1114  001436  201F               	addwfc	??_PWM6+1,w,c
  1115  001438  6E1D               	movwf	vTaskDelay@delayms+1,c
  1116  00143A  EC53  F007         	call	_vTaskDelay	;wreg free
  1117  00143E  D7E9               	goto	i1l122
  1118  001440                     __end_of_PWM6:
  1119                           	opt stack 0
  1120                           pclatu	equ	0xFFB
  1121                           pclath	equ	0xFFA
  1122                           tblptru	equ	0xFF8
  1123                           tblptrh	equ	0xFF7
  1124                           tblptrl	equ	0xFF6
  1125                           tablat	equ	0xFF5
  1126                           prodh	equ	0xFF4
  1127                           prodl	equ	0xFF3
  1128                           intcon	equ	0xFF2
  1129                           postinc0	equ	0xFEE
  1130                           fsr0h	equ	0xFEA
  1131                           fsr0l	equ	0xFE9
  1132                           wreg	equ	0xFE8
  1133                           postdec1	equ	0xFE5
  1134                           fsr1h	equ	0xFE2
  1135                           fsr1l	equ	0xFE1
  1136                           bsr	equ	0xFE0
  1137                           indf2	equ	0xFDF
  1138                           fsr2h	equ	0xFDA
  1139                           fsr2l	equ	0xFD9
  1140                           status	equ	0xFD8
  1141                           
  1142 ;; *************** function _PWM5 *****************
  1143 ;; Defined at:
  1144 ;;		line 191 in file "main.c"
  1145 ;; Parameters:    Size  Location     Type
  1146 ;;		None
  1147 ;; Auto vars:     Size  Location     Type
  1148 ;;		None
  1149 ;; Return value:  Size  Location     Type
  1150 ;;		None               void
  1151 ;; Registers used:
  1152 ;;		wreg, fsr2l, fsr2h, status,2, status,0, prodl, prodh, cstack
  1153 ;; Tracked objects:
  1154 ;;		On entry : 0/0
  1155 ;;		On exit  : 0/0
  1156 ;;		Unchanged: 0/0
  1157 ;; Data sizes:     COMRAM   BANK0   BANK1   BANK2   BANK3   BANK4   BANK5   BANK6   BANK7
  1158 ;;      Params:         0       0       0       0       0       0       0       0       0
  1159 ;;      Locals:         0       0       0       0       0       0       0       0       0
  1160 ;;      Temps:          2       0       0       0       0       0       0       0       0
  1161 ;;      Totals:         2       0       0       0       0       0       0       0       0
  1162 ;;Total ram usage:        2 bytes
  1163 ;; Hardware stack levels used:    1
  1164 ;; Hardware stack levels required when called:    4
  1165 ;; This function calls:
  1166 ;;		_vTaskDelay
  1167 ;;		_vTaskDelete
  1168 ;; This function is called by:
  1169 ;;		_PWM_activator
  1170 ;;		_Low_Priority_Interrupt
  1171 ;; This function uses a non-reentrant model
  1172 ;;
  1173                           
  1174                           	psect	text6
  1175  001440                     __ptext6:
  1176                           	opt stack 0
  1177  001440                     _PWM5:
  1178                           	opt stack 24
  1179  001440                     i1l116:
  1180                           
  1181                           ;main.c: 195: LATBbits.LATB4= 1;
  1182  001440  888A               	bsf	3978,4,c	;volatile
  1183                           
  1184                           ;main.c: 196: vTaskDelay(dutyCycle5);
  1185  001442  C03D  F01C         	movff	_dutyCycle5,vTaskDelay@delayms
  1186  001446  6A1D               	clrf	vTaskDelay@delayms+1,c
  1187  001448  EC53  F007         	call	_vTaskDelay	;wreg free
  1188                           
  1189                           ;main.c: 199: LATBbits.LATB4= 0;
  1190  00144C  988A               	bcf	3978,4,c	;volatile
  1191                           
  1192                           ;main.c: 200: vTaskDelay(10-dutyCycle5);
  1193  00144E  503D               	movf	_dutyCycle5,w,c
  1194  001450  6E1E               	movwf	??_PWM5& (0+255),c
  1195  001452  6A1F               	clrf	(??_PWM5+1)& (0+255),c
  1196  001454  1E1E               	comf	??_PWM5,f,c
  1197  001456  1E1F               	comf	??_PWM5+1,f,c
  1198  001458  4A1E               	infsnz	??_PWM5,f,c
  1199  00145A  2A1F               	incf	??_PWM5+1,f,c
  1200  00145C  0E0A               	movlw	10
  1201  00145E  241E               	addwf	??_PWM5,w,c
  1202  001460  6E1C               	movwf	vTaskDelay@delayms,c
  1203  001462  0E00               	movlw	0
  1204  001464  201F               	addwfc	??_PWM5+1,w,c
  1205  001466  6E1D               	movwf	vTaskDelay@delayms+1,c
  1206  001468  EC53  F007         	call	_vTaskDelay	;wreg free
  1207  00146C  D7E9               	goto	i1l116
  1208  00146E                     __end_of_PWM5:
  1209                           	opt stack 0
  1210                           pclatu	equ	0xFFB
  1211                           pclath	equ	0xFFA
  1212                           tblptru	equ	0xFF8
  1213                           tblptrh	equ	0xFF7
  1214                           tblptrl	equ	0xFF6
  1215                           tablat	equ	0xFF5
  1216                           prodh	equ	0xFF4
  1217                           prodl	equ	0xFF3
  1218                           intcon	equ	0xFF2
  1219                           postinc0	equ	0xFEE
  1220                           fsr0h	equ	0xFEA
  1221                           fsr0l	equ	0xFE9
  1222                           wreg	equ	0xFE8
  1223                           postdec1	equ	0xFE5
  1224                           fsr1h	equ	0xFE2
  1225                           fsr1l	equ	0xFE1
  1226                           bsr	equ	0xFE0
  1227                           indf2	equ	0xFDF
  1228                           fsr2h	equ	0xFDA
  1229                           fsr2l	equ	0xFD9
  1230                           status	equ	0xFD8
  1231                           
  1232 ;; *************** function _PWM4 *****************
  1233 ;; Defined at:
  1234 ;;		line 177 in file "main.c"
  1235 ;; Parameters:    Size  Location     Type
  1236 ;;		None
  1237 ;; Auto vars:     Size  Location     Type
  1238 ;;		None
  1239 ;; Return value:  Size  Location     Type
  1240 ;;		None               void
  1241 ;; Registers used:
  1242 ;;		wreg, fsr2l, fsr2h, status,2, status,0, prodl, prodh, cstack
  1243 ;; Tracked objects:
  1244 ;;		On entry : 0/0
  1245 ;;		On exit  : 0/0
  1246 ;;		Unchanged: 0/0
  1247 ;; Data sizes:     COMRAM   BANK0   BANK1   BANK2   BANK3   BANK4   BANK5   BANK6   BANK7
  1248 ;;      Params:         0       0       0       0       0       0       0       0       0
  1249 ;;      Locals:         0       0       0       0       0       0       0       0       0
  1250 ;;      Temps:          2       0       0       0       0       0       0       0       0
  1251 ;;      Totals:         2       0       0       0       0       0       0       0       0
  1252 ;;Total ram usage:        2 bytes
  1253 ;; Hardware stack levels used:    1
  1254 ;; Hardware stack levels required when called:    4
  1255 ;; This function calls:
  1256 ;;		_vTaskDelay
  1257 ;;		_vTaskDelete
  1258 ;; This function is called by:
  1259 ;;		_PWM_activator
  1260 ;;		_Low_Priority_Interrupt
  1261 ;; This function uses a non-reentrant model
  1262 ;;
  1263                           
  1264                           	psect	text7
  1265  00146E                     __ptext7:
  1266                           	opt stack 0
  1267  00146E                     _PWM4:
  1268                           	opt stack 24
  1269  00146E                     i1l110:
  1270                           
  1271                           ;main.c: 181: LATBbits.LATB3= 1;
  1272  00146E  868A               	bsf	3978,3,c	;volatile
  1273                           
  1274                           ;main.c: 182: vTaskDelay(dutyCycle4);
  1275  001470  C03C  F01C         	movff	_dutyCycle4,vTaskDelay@delayms
  1276  001474  6A1D               	clrf	vTaskDelay@delayms+1,c
  1277  001476  EC53  F007         	call	_vTaskDelay	;wreg free
  1278                           
  1279                           ;main.c: 185: LATBbits.LATB3= 0;
  1280  00147A  968A               	bcf	3978,3,c	;volatile
  1281                           
  1282                           ;main.c: 186: vTaskDelay(10-dutyCycle4);
  1283  00147C  503C               	movf	_dutyCycle4,w,c
  1284  00147E  6E1E               	movwf	??_PWM4& (0+255),c
  1285  001480  6A1F               	clrf	(??_PWM4+1)& (0+255),c
  1286  001482  1E1E               	comf	??_PWM4,f,c
  1287  001484  1E1F               	comf	??_PWM4+1,f,c
  1288  001486  4A1E               	infsnz	??_PWM4,f,c
  1289  001488  2A1F               	incf	??_PWM4+1,f,c
  1290  00148A  0E0A               	movlw	10
  1291  00148C  241E               	addwf	??_PWM4,w,c
  1292  00148E  6E1C               	movwf	vTaskDelay@delayms,c
  1293  001490  0E00               	movlw	0
  1294  001492  201F               	addwfc	??_PWM4+1,w,c
  1295  001494  6E1D               	movwf	vTaskDelay@delayms+1,c
  1296  001496  EC53  F007         	call	_vTaskDelay	;wreg free
  1297  00149A  D7E9               	goto	i1l110
  1298  00149C                     __end_of_PWM4:
  1299                           	opt stack 0
  1300                           pclatu	equ	0xFFB
  1301                           pclath	equ	0xFFA
  1302                           tblptru	equ	0xFF8
  1303                           tblptrh	equ	0xFF7
  1304                           tblptrl	equ	0xFF6
  1305                           tablat	equ	0xFF5
  1306                           prodh	equ	0xFF4
  1307                           prodl	equ	0xFF3
  1308                           intcon	equ	0xFF2
  1309                           postinc0	equ	0xFEE
  1310                           fsr0h	equ	0xFEA
  1311                           fsr0l	equ	0xFE9
  1312                           wreg	equ	0xFE8
  1313                           postdec1	equ	0xFE5
  1314                           fsr1h	equ	0xFE2
  1315                           fsr1l	equ	0xFE1
  1316                           bsr	equ	0xFE0
  1317                           indf2	equ	0xFDF
  1318                           fsr2h	equ	0xFDA
  1319                           fsr2l	equ	0xFD9
  1320                           status	equ	0xFD8
  1321                           
  1322 ;; *************** function _PWM3 *****************
  1323 ;; Defined at:
  1324 ;;		line 163 in file "main.c"
  1325 ;; Parameters:    Size  Location     Type
  1326 ;;		None
  1327 ;; Auto vars:     Size  Location     Type
  1328 ;;		None
  1329 ;; Return value:  Size  Location     Type
  1330 ;;		None               void
  1331 ;; Registers used:
  1332 ;;		wreg, fsr2l, fsr2h, status,2, status,0, prodl, prodh, cstack
  1333 ;; Tracked objects:
  1334 ;;		On entry : 0/0
  1335 ;;		On exit  : 0/0
  1336 ;;		Unchanged: 0/0
  1337 ;; Data sizes:     COMRAM   BANK0   BANK1   BANK2   BANK3   BANK4   BANK5   BANK6   BANK7
  1338 ;;      Params:         0       0       0       0       0       0       0       0       0
  1339 ;;      Locals:         0       0       0       0       0       0       0       0       0
  1340 ;;      Temps:          2       0       0       0       0       0       0       0       0
  1341 ;;      Totals:         2       0       0       0       0       0       0       0       0
  1342 ;;Total ram usage:        2 bytes
  1343 ;; Hardware stack levels used:    1
  1344 ;; Hardware stack levels required when called:    4
  1345 ;; This function calls:
  1346 ;;		_vTaskDelay
  1347 ;;		_vTaskDelete
  1348 ;; This function is called by:
  1349 ;;		_PWM_activator
  1350 ;;		_Low_Priority_Interrupt
  1351 ;; This function uses a non-reentrant model
  1352 ;;
  1353                           
  1354                           	psect	text8
  1355  00149C                     __ptext8:
  1356                           	opt stack 0
  1357  00149C                     _PWM3:
  1358                           	opt stack 24
  1359  00149C                     i1l104:
  1360                           
  1361                           ;main.c: 167: LATBbits.LATB2= 1;
  1362  00149C  848A               	bsf	3978,2,c	;volatile
  1363                           
  1364                           ;main.c: 168: vTaskDelay(dutyCycle3);
  1365  00149E  C03B  F01C         	movff	_dutyCycle3,vTaskDelay@delayms
  1366  0014A2  6A1D               	clrf	vTaskDelay@delayms+1,c
  1367  0014A4  EC53  F007         	call	_vTaskDelay	;wreg free
  1368                           
  1369                           ;main.c: 171: LATBbits.LATB2= 0;
  1370  0014A8  948A               	bcf	3978,2,c	;volatile
  1371                           
  1372                           ;main.c: 172: vTaskDelay(10-dutyCycle3);
  1373  0014AA  503B               	movf	_dutyCycle3,w,c
  1374  0014AC  6E1E               	movwf	??_PWM3& (0+255),c
  1375  0014AE  6A1F               	clrf	(??_PWM3+1)& (0+255),c
  1376  0014B0  1E1E               	comf	??_PWM3,f,c
  1377  0014B2  1E1F               	comf	??_PWM3+1,f,c
  1378  0014B4  4A1E               	infsnz	??_PWM3,f,c
  1379  0014B6  2A1F               	incf	??_PWM3+1,f,c
  1380  0014B8  0E0A               	movlw	10
  1381  0014BA  241E               	addwf	??_PWM3,w,c
  1382  0014BC  6E1C               	movwf	vTaskDelay@delayms,c
  1383  0014BE  0E00               	movlw	0
  1384  0014C0  201F               	addwfc	??_PWM3+1,w,c
  1385  0014C2  6E1D               	movwf	vTaskDelay@delayms+1,c
  1386  0014C4  EC53  F007         	call	_vTaskDelay	;wreg free
  1387  0014C8  D7E9               	goto	i1l104
  1388  0014CA                     __end_of_PWM3:
  1389                           	opt stack 0
  1390                           pclatu	equ	0xFFB
  1391                           pclath	equ	0xFFA
  1392                           tblptru	equ	0xFF8
  1393                           tblptrh	equ	0xFF7
  1394                           tblptrl	equ	0xFF6
  1395                           tablat	equ	0xFF5
  1396                           prodh	equ	0xFF4
  1397                           prodl	equ	0xFF3
  1398                           intcon	equ	0xFF2
  1399                           postinc0	equ	0xFEE
  1400                           fsr0h	equ	0xFEA
  1401                           fsr0l	equ	0xFE9
  1402                           wreg	equ	0xFE8
  1403                           postdec1	equ	0xFE5
  1404                           fsr1h	equ	0xFE2
  1405                           fsr1l	equ	0xFE1
  1406                           bsr	equ	0xFE0
  1407                           indf2	equ	0xFDF
  1408                           fsr2h	equ	0xFDA
  1409                           fsr2l	equ	0xFD9
  1410                           status	equ	0xFD8
  1411                           
  1412 ;; *************** function _PWM2 *****************
  1413 ;; Defined at:
  1414 ;;		line 149 in file "main.c"
  1415 ;; Parameters:    Size  Location     Type
  1416 ;;		None
  1417 ;; Auto vars:     Size  Location     Type
  1418 ;;		None
  1419 ;; Return value:  Size  Location     Type
  1420 ;;		None               void
  1421 ;; Registers used:
  1422 ;;		wreg, fsr2l, fsr2h, status,2, status,0, prodl, prodh, cstack
  1423 ;; Tracked objects:
  1424 ;;		On entry : 0/0
  1425 ;;		On exit  : 0/0
  1426 ;;		Unchanged: 0/0
  1427 ;; Data sizes:     COMRAM   BANK0   BANK1   BANK2   BANK3   BANK4   BANK5   BANK6   BANK7
  1428 ;;      Params:         0       0       0       0       0       0       0       0       0
  1429 ;;      Locals:         0       0       0       0       0       0       0       0       0
  1430 ;;      Temps:          2       0       0       0       0       0       0       0       0
  1431 ;;      Totals:         2       0       0       0       0       0       0       0       0
  1432 ;;Total ram usage:        2 bytes
  1433 ;; Hardware stack levels used:    1
  1434 ;; Hardware stack levels required when called:    4
  1435 ;; This function calls:
  1436 ;;		_vTaskDelay
  1437 ;;		_vTaskDelete
  1438 ;; This function is called by:
  1439 ;;		_PWM_activator
  1440 ;;		_Low_Priority_Interrupt
  1441 ;; This function uses a non-reentrant model
  1442 ;;
  1443                           
  1444                           	psect	text9
  1445  0014CA                     __ptext9:
  1446                           	opt stack 0
  1447  0014CA                     _PWM2:
  1448                           	opt stack 24
  1449  0014CA                     i1l98:
  1450                           
  1451                           ;main.c: 153: LATBbits.LATB1= 1;
  1452  0014CA  828A               	bsf	3978,1,c	;volatile
  1453                           
  1454                           ;main.c: 154: vTaskDelay(dutyCycle2);
  1455  0014CC  C03A  F01C         	movff	_dutyCycle2,vTaskDelay@delayms
  1456  0014D0  6A1D               	clrf	vTaskDelay@delayms+1,c
  1457  0014D2  EC53  F007         	call	_vTaskDelay	;wreg free
  1458                           
  1459                           ;main.c: 157: LATBbits.LATB1= 0;
  1460  0014D6  928A               	bcf	3978,1,c	;volatile
  1461                           
  1462                           ;main.c: 158: vTaskDelay(10-dutyCycle2);
  1463  0014D8  503A               	movf	_dutyCycle2,w,c
  1464  0014DA  6E1E               	movwf	??_PWM2& (0+255),c
  1465  0014DC  6A1F               	clrf	(??_PWM2+1)& (0+255),c
  1466  0014DE  1E1E               	comf	??_PWM2,f,c
  1467  0014E0  1E1F               	comf	??_PWM2+1,f,c
  1468  0014E2  4A1E               	infsnz	??_PWM2,f,c
  1469  0014E4  2A1F               	incf	??_PWM2+1,f,c
  1470  0014E6  0E0A               	movlw	10
  1471  0014E8  241E               	addwf	??_PWM2,w,c
  1472  0014EA  6E1C               	movwf	vTaskDelay@delayms,c
  1473  0014EC  0E00               	movlw	0
  1474  0014EE  201F               	addwfc	??_PWM2+1,w,c
  1475  0014F0  6E1D               	movwf	vTaskDelay@delayms+1,c
  1476  0014F2  EC53  F007         	call	_vTaskDelay	;wreg free
  1477  0014F6  D7E9               	goto	i1l98
  1478  0014F8                     __end_of_PWM2:
  1479                           	opt stack 0
  1480                           pclatu	equ	0xFFB
  1481                           pclath	equ	0xFFA
  1482                           tblptru	equ	0xFF8
  1483                           tblptrh	equ	0xFF7
  1484                           tblptrl	equ	0xFF6
  1485                           tablat	equ	0xFF5
  1486                           prodh	equ	0xFF4
  1487                           prodl	equ	0xFF3
  1488                           intcon	equ	0xFF2
  1489                           postinc0	equ	0xFEE
  1490                           fsr0h	equ	0xFEA
  1491                           fsr0l	equ	0xFE9
  1492                           wreg	equ	0xFE8
  1493                           postdec1	equ	0xFE5
  1494                           fsr1h	equ	0xFE2
  1495                           fsr1l	equ	0xFE1
  1496                           bsr	equ	0xFE0
  1497                           indf2	equ	0xFDF
  1498                           fsr2h	equ	0xFDA
  1499                           fsr2l	equ	0xFD9
  1500                           status	equ	0xFD8
  1501                           
  1502 ;; *************** function _PWM1 *****************
  1503 ;; Defined at:
  1504 ;;		line 133 in file "main.c"
  1505 ;; Parameters:    Size  Location     Type
  1506 ;;		None
  1507 ;; Auto vars:     Size  Location     Type
  1508 ;;		None
  1509 ;; Return value:  Size  Location     Type
  1510 ;;		None               void
  1511 ;; Registers used:
  1512 ;;		wreg, fsr2l, fsr2h, status,2, status,0, prodl, prodh, cstack
  1513 ;; Tracked objects:
  1514 ;;		On entry : 0/0
  1515 ;;		On exit  : 0/0
  1516 ;;		Unchanged: 0/0
  1517 ;; Data sizes:     COMRAM   BANK0   BANK1   BANK2   BANK3   BANK4   BANK5   BANK6   BANK7
  1518 ;;      Params:         0       0       0       0       0       0       0       0       0
  1519 ;;      Locals:         0       0       0       0       0       0       0       0       0
  1520 ;;      Temps:          2       0       0       0       0       0       0       0       0
  1521 ;;      Totals:         2       0       0       0       0       0       0       0       0
  1522 ;;Total ram usage:        2 bytes
  1523 ;; Hardware stack levels used:    1
  1524 ;; Hardware stack levels required when called:    4
  1525 ;; This function calls:
  1526 ;;		_vTaskDelay
  1527 ;;		_vTaskDelete
  1528 ;; This function is called by:
  1529 ;;		_PWM_activator
  1530 ;;		_Low_Priority_Interrupt
  1531 ;; This function uses a non-reentrant model
  1532 ;;
  1533                           
  1534                           	psect	text10
  1535  0014F8                     __ptext10:
  1536                           	opt stack 0
  1537  0014F8                     _PWM1:
  1538                           	opt stack 24
  1539  0014F8                     i1l92:
  1540                           
  1541                           ;main.c: 136: LATBbits.LATB0= 1;
  1542  0014F8  808A               	bsf	3978,0,c	;volatile
  1543                           
  1544                           ;main.c: 140: vTaskDelay(dutyCycle1);
  1545  0014FA  C039  F01C         	movff	_dutyCycle1,vTaskDelay@delayms
  1546  0014FE  6A1D               	clrf	vTaskDelay@delayms+1,c
  1547  001500  EC53  F007         	call	_vTaskDelay	;wreg free
  1548                           
  1549                           ;main.c: 142: LATBbits.LATB0= 0;
  1550  001504  908A               	bcf	3978,0,c	;volatile
  1551                           
  1552                           ;main.c: 144: vTaskDelay(10-dutyCycle1);
  1553  001506  5039               	movf	_dutyCycle1,w,c
  1554  001508  6E1E               	movwf	??_PWM1& (0+255),c
  1555  00150A  6A1F               	clrf	(??_PWM1+1)& (0+255),c
  1556  00150C  1E1E               	comf	??_PWM1,f,c
  1557  00150E  1E1F               	comf	??_PWM1+1,f,c
  1558  001510  4A1E               	infsnz	??_PWM1,f,c
  1559  001512  2A1F               	incf	??_PWM1+1,f,c
  1560  001514  0E0A               	movlw	10
  1561  001516  241E               	addwf	??_PWM1,w,c
  1562  001518  6E1C               	movwf	vTaskDelay@delayms,c
  1563  00151A  0E00               	movlw	0
  1564  00151C  201F               	addwfc	??_PWM1+1,w,c
  1565  00151E  6E1D               	movwf	vTaskDelay@delayms+1,c
  1566  001520  EC53  F007         	call	_vTaskDelay	;wreg free
  1567  001524  D7E9               	goto	i1l92
  1568  001526                     __end_of_PWM1:
  1569                           	opt stack 0
  1570                           pclatu	equ	0xFFB
  1571                           pclath	equ	0xFFA
  1572                           tblptru	equ	0xFF8
  1573                           tblptrh	equ	0xFF7
  1574                           tblptrl	equ	0xFF6
  1575                           tablat	equ	0xFF5
  1576                           prodh	equ	0xFF4
  1577                           prodl	equ	0xFF3
  1578                           intcon	equ	0xFF2
  1579                           postinc0	equ	0xFEE
  1580                           fsr0h	equ	0xFEA
  1581                           fsr0l	equ	0xFE9
  1582                           wreg	equ	0xFE8
  1583                           postdec1	equ	0xFE5
  1584                           fsr1h	equ	0xFE2
  1585                           fsr1l	equ	0xFE1
  1586                           bsr	equ	0xFE0
  1587                           indf2	equ	0xFDF
  1588                           fsr2h	equ	0xFDA
  1589                           fsr2l	equ	0xFD9
  1590                           status	equ	0xFD8
  1591                           
  1592 ;; *************** function _FunctionE *****************
  1593 ;; Defined at:
  1594 ;;		line 32 in file "main.c"
  1595 ;; Parameters:    Size  Location     Type
  1596 ;;		None
  1597 ;; Auto vars:     Size  Location     Type
  1598 ;;		None
  1599 ;; Return value:  Size  Location     Type
  1600 ;;		None               void
  1601 ;; Registers used:
  1602 ;;		wreg, fsr2l, fsr2h, status,2, status,0, prodl, prodh, cstack
  1603 ;; Tracked objects:
  1604 ;;		On entry : 0/0
  1605 ;;		On exit  : 0/0
  1606 ;;		Unchanged: 0/0
  1607 ;; Data sizes:     COMRAM   BANK0   BANK1   BANK2   BANK3   BANK4   BANK5   BANK6   BANK7
  1608 ;;      Params:         0       0       0       0       0       0       0       0       0
  1609 ;;      Locals:         0       0       0       0       0       0       0       0       0
  1610 ;;      Temps:          0       0       0       0       0       0       0       0       0
  1611 ;;      Totals:         0       0       0       0       0       0       0       0       0
  1612 ;;Total ram usage:        0 bytes
  1613 ;; Hardware stack levels used:    1
  1614 ;; Hardware stack levels required when called:    4
  1615 ;; This function calls:
  1616 ;;		_vTaskDelay
  1617 ;;		_vTaskDelete
  1618 ;; This function is called by:
  1619 ;;		_FunctionD
  1620 ;;		_Low_Priority_Interrupt
  1621 ;; This function uses a non-reentrant model
  1622 ;;
  1623                           
  1624                           	psect	text11
  1625  00154C                     __ptext11:
  1626                           	opt stack 0
  1627  00154C                     _FunctionE:
  1628                           	opt stack 24
  1629                           
  1630                           ;incstack = 0
  1631  00154C  F000               	nop		;# 
  1632  00154E  F000               	nop		;# 
  1633  001550  F000               	nop		;# 
  1634  001552  F000               	nop		;# 
  1635                           
  1636                           ;main.c: 37: vTaskDelay(5);
  1637  001554  0E00               	movlw	0
  1638  001556  6E1D               	movwf	vTaskDelay@delayms+1,c
  1639  001558  0E05               	movlw	5
  1640  00155A  6E1C               	movwf	vTaskDelay@delayms,c
  1641  00155C  EC53  F007         	call	_vTaskDelay	;wreg free
  1642  001560  F000               	nop		;# 
  1643                           
  1644                           ;main.c: 39: vTaskDelete();
  1645  001562  EC93  F00A         	call	_vTaskDelete	;wreg free
  1646  001566  0012               	return		;funcret
  1647  001568                     __end_of_FunctionE:
  1648                           	opt stack 0
  1649                           pclatu	equ	0xFFB
  1650                           pclath	equ	0xFFA
  1651                           tblptru	equ	0xFF8
  1652                           tblptrh	equ	0xFF7
  1653                           tblptrl	equ	0xFF6
  1654                           tablat	equ	0xFF5
  1655                           prodh	equ	0xFF4
  1656                           prodl	equ	0xFF3
  1657                           intcon	equ	0xFF2
  1658                           postinc0	equ	0xFEE
  1659                           fsr0h	equ	0xFEA
  1660                           fsr0l	equ	0xFE9
  1661                           wreg	equ	0xFE8
  1662                           postdec1	equ	0xFE5
  1663                           fsr1h	equ	0xFE2
  1664                           fsr1l	equ	0xFE1
  1665                           bsr	equ	0xFE0
  1666                           indf2	equ	0xFDF
  1667                           fsr2h	equ	0xFDA
  1668                           fsr2l	equ	0xFD9
  1669                           status	equ	0xFD8
  1670                           
  1671 ;; *************** function _FunctionD *****************
  1672 ;; Defined at:
  1673 ;;		line 42 in file "main.c"
  1674 ;; Parameters:    Size  Location     Type
  1675 ;;		None
  1676 ;; Auto vars:     Size  Location     Type
  1677 ;;		None
  1678 ;; Return value:  Size  Location     Type
  1679 ;;		None               void
  1680 ;; Registers used:
  1681 ;;		wreg, fsr2l, fsr2h, status,2, status,0, prodl, prodh, cstack
  1682 ;; Tracked objects:
  1683 ;;		On entry : 0/0
  1684 ;;		On exit  : 0/0
  1685 ;;		Unchanged: 0/0
  1686 ;; Data sizes:     COMRAM   BANK0   BANK1   BANK2   BANK3   BANK4   BANK5   BANK6   BANK7
  1687 ;;      Params:         0       0       0       0       0       0       0       0       0
  1688 ;;      Locals:         0       0       0       0       0       0       0       0       0
  1689 ;;      Temps:          0       0       0       0       0       0       0       0       0
  1690 ;;      Totals:         0       0       0       0       0       0       0       0       0
  1691 ;;Total ram usage:        0 bytes
  1692 ;; Hardware stack levels used:    1
  1693 ;; Hardware stack levels required when called:    4
  1694 ;; This function calls:
  1695 ;;		_vTaskDelay
  1696 ;;		_vTaskDelete
  1697 ;;		_xTaskCreate
  1698 ;; This function is called by:
  1699 ;;		_Low_Priority_Interrupt
  1700 ;; This function uses a non-reentrant model
  1701 ;;
  1702                           
  1703                           	psect	text12
  1704  0013A8                     __ptext12:
  1705                           	opt stack 0
  1706  0013A8                     _FunctionD:
  1707                           	opt stack 24
  1708                           
  1709                           ;incstack = 0
  1710  0013A8  F000               	nop		;# 
  1711  0013AA  F000               	nop		;# 
  1712  0013AC  F000               	nop		;# 
  1713                           
  1714                           ;main.c: 46: xTaskCreate(FunctionE,4,0);
  1715  0013AE  0E4C               	movlw	low _FunctionE
  1716  0013B0  6E1C               	movwf	xTaskCreate@pvTaskCode,c
  1717  0013B2  0E15               	movlw	high _FunctionE
  1718  0013B4  6E1D               	movwf	xTaskCreate@pvTaskCode+1,c
  1719  0013B6  0E00               	movlw	low (_FunctionE shr (0+16))
  1720  0013B8  6E1E               	movwf	xTaskCreate@pvTaskCode+2,c
  1721  0013BA  0E00               	movlw	high (_FunctionE shr (0+16))
  1722  0013BC  6E1F               	movwf	xTaskCreate@pvTaskCode+3,c
  1723  0013BE  0E04               	movlw	4
  1724  0013C0  6E20               	movwf	xTaskCreate@Id,c
  1725  0013C2  0E00               	movlw	0
  1726  0013C4  6E21               	movwf	xTaskCreate@Prior,c
  1727  0013C6  EC90  F004         	call	_xTaskCreate	;wreg free
  1728                           
  1729                           ;main.c: 47: vTaskDelay(1);
  1730  0013CA  0E00               	movlw	0
  1731  0013CC  6E1D               	movwf	vTaskDelay@delayms+1,c
  1732  0013CE  0E01               	movlw	1
  1733  0013D0  6E1C               	movwf	vTaskDelay@delayms,c
  1734  0013D2  EC53  F007         	call	_vTaskDelay	;wreg free
  1735  0013D6  F000               	nop		;# 
  1736                           
  1737                           ;main.c: 49: vTaskDelete();
  1738  0013D8  EC93  F00A         	call	_vTaskDelete	;wreg free
  1739  0013DC  0012               	return		;funcret
  1740  0013DE                     __end_of_FunctionD:
  1741                           	opt stack 0
  1742                           pclatu	equ	0xFFB
  1743                           pclath	equ	0xFFA
  1744                           tblptru	equ	0xFF8
  1745                           tblptrh	equ	0xFF7
  1746                           tblptrl	equ	0xFF6
  1747                           tablat	equ	0xFF5
  1748                           prodh	equ	0xFF4
  1749                           prodl	equ	0xFF3
  1750                           intcon	equ	0xFF2
  1751                           postinc0	equ	0xFEE
  1752                           fsr0h	equ	0xFEA
  1753                           fsr0l	equ	0xFE9
  1754                           wreg	equ	0xFE8
  1755                           postdec1	equ	0xFE5
  1756                           fsr1h	equ	0xFE2
  1757                           fsr1l	equ	0xFE1
  1758                           bsr	equ	0xFE0
  1759                           indf2	equ	0xFDF
  1760                           fsr2h	equ	0xFDA
  1761                           fsr2l	equ	0xFD9
  1762                           status	equ	0xFD8
  1763                           
  1764 ;; *************** function _vTaskDelay *****************
  1765 ;; Defined at:
  1766 ;;		line 208 in file "Structure.c"
  1767 ;; Parameters:    Size  Location     Type
  1768 ;;  delayms         2    1[COMRAM] unsigned int 
  1769 ;; Auto vars:     Size  Location     Type
  1770 ;;		None
  1771 ;; Return value:  Size  Location     Type
  1772 ;;		None               void
  1773 ;; Registers used:
  1774 ;;		wreg, fsr2l, fsr2h, status,2, status,0, prodl, prodh, cstack
  1775 ;; Tracked objects:
  1776 ;;		On entry : 0/0
  1777 ;;		On exit  : 0/0
  1778 ;;		Unchanged: 0/0
  1779 ;; Data sizes:     COMRAM   BANK0   BANK1   BANK2   BANK3   BANK4   BANK5   BANK6   BANK7
  1780 ;;      Params:         2       0       0       0       0       0       0       0       0
  1781 ;;      Locals:         0       0       0       0       0       0       0       0       0
  1782 ;;      Temps:          0       0       0       0       0       0       0       0       0
  1783 ;;      Totals:         2       0       0       0       0       0       0       0       0
  1784 ;;Total ram usage:        2 bytes
  1785 ;; Hardware stack levels used:    1
  1786 ;; Hardware stack levels required when called:    3
  1787 ;; This function calls:
  1788 ;;		_OSRun
  1789 ;; This function is called by:
  1790 ;;		_FunctionE
  1791 ;;		_FunctionD
  1792 ;;		_PWM1
  1793 ;;		_PWM2
  1794 ;;		_PWM3
  1795 ;;		_PWM4
  1796 ;;		_PWM5
  1797 ;;		_PWM6
  1798 ;; This function uses a non-reentrant model
  1799 ;;
  1800                           
  1801                           	psect	text13
  1802  000EA6                     __ptext13:
  1803                           	opt stack 0
  1804  000EA6                     _vTaskDelay:
  1805                           	opt stack 24
  1806                           
  1807                           ;Structure.c: 209: GIE = 0;
  1808                           
  1809                           ;incstack = 0
  1810  000EA6  9EF2               	bcf	intcon,7,c	;volatile
  1811                           
  1812                           ;Structure.c: 210: TaskArray[actualPosition].currentAdd3=TOSU;
  1813  000EA8  5038               	movf	_actualPosition,w,c
  1814  000EAA  0D15               	mullw	21
  1815  000EAC  0E08               	movlw	8
  1816  000EAE  26F3               	addwf	prodl,f,c
  1817  000EB0  0E00               	movlw	0
  1818  000EB2  22F4               	addwfc	prodh,f,c
  1819  000EB4  0E00               	movlw	low _TaskArray
  1820  000EB6  24F3               	addwf	prodl,w,c
  1821  000EB8  6ED9               	movwf	fsr2l,c
  1822  000EBA  0E01               	movlw	high _TaskArray
  1823  000EBC  20F4               	addwfc	prodh,w,c
  1824  000EBE  6EDA               	movwf	fsr2h,c
  1825  000EC0  CFFF FFDF          	movff	tosu,indf2	;volatile
  1826                           
  1827                           ;Structure.c: 211: TaskArray[actualPosition].currentAdd2=TOSH;
  1828  000EC4  5038               	movf	_actualPosition,w,c
  1829  000EC6  0D15               	mullw	21
  1830  000EC8  0E07               	movlw	7
  1831  000ECA  26F3               	addwf	prodl,f,c
  1832  000ECC  0E00               	movlw	0
  1833  000ECE  22F4               	addwfc	prodh,f,c
  1834  000ED0  0E00               	movlw	low _TaskArray
  1835  000ED2  24F3               	addwf	prodl,w,c
  1836  000ED4  6ED9               	movwf	fsr2l,c
  1837  000ED6  0E01               	movlw	high _TaskArray
  1838  000ED8  20F4               	addwfc	prodh,w,c
  1839  000EDA  6EDA               	movwf	fsr2h,c
  1840  000EDC  CFFE FFDF          	movff	tosh,indf2	;volatile
  1841                           
  1842                           ;Structure.c: 212: TaskArray[actualPosition].currentAdd1=TOSL;
  1843  000EE0  5038               	movf	_actualPosition,w,c
  1844  000EE2  0D15               	mullw	21
  1845  000EE4  0E06               	movlw	6
  1846  000EE6  26F3               	addwf	prodl,f,c
  1847  000EE8  0E00               	movlw	0
  1848  000EEA  22F4               	addwfc	prodh,f,c
  1849  000EEC  0E00               	movlw	low _TaskArray
  1850  000EEE  24F3               	addwf	prodl,w,c
  1851  000EF0  6ED9               	movwf	fsr2l,c
  1852  000EF2  0E01               	movlw	high _TaskArray
  1853  000EF4  20F4               	addwfc	prodh,w,c
  1854  000EF6  6EDA               	movwf	fsr2h,c
  1855  000EF8  CFFD FFDF          	movff	tosl,indf2	;volatile
  1856                           
  1857                           ;Structure.c: 214: TaskArray[actualPosition].state=1;
  1858  000EFC  5038               	movf	_actualPosition,w,c
  1859  000EFE  0D15               	mullw	21
  1860  000F00  0E03               	movlw	3
  1861  000F02  26F3               	addwf	prodl,f,c
  1862  000F04  0E00               	movlw	0
  1863  000F06  22F4               	addwfc	prodh,f,c
  1864  000F08  0E00               	movlw	low _TaskArray
  1865  000F0A  24F3               	addwf	prodl,w,c
  1866  000F0C  6ED9               	movwf	fsr2l,c
  1867  000F0E  0E01               	movlw	high _TaskArray
  1868  000F10  20F4               	addwfc	prodh,w,c
  1869  000F12  6EDA               	movwf	fsr2h,c
  1870  000F14  0E01               	movlw	1
  1871  000F16  6EDF               	movwf	indf2,c
  1872                           
  1873                           ;Structure.c: 215: TaskArray[actualPosition].DelayTime=delayms;
  1874  000F18  5038               	movf	_actualPosition,w,c
  1875  000F1A  0D15               	mullw	21
  1876  000F1C  0E0C               	movlw	12
  1877  000F1E  26F3               	addwf	prodl,f,c
  1878  000F20  0E00               	movlw	0
  1879  000F22  22F4               	addwfc	prodh,f,c
  1880  000F24  0E00               	movlw	low _TaskArray
  1881  000F26  24F3               	addwf	prodl,w,c
  1882  000F28  6ED9               	movwf	fsr2l,c
  1883  000F2A  0E01               	movlw	high _TaskArray
  1884  000F2C  20F4               	addwfc	prodh,w,c
  1885  000F2E  6EDA               	movwf	fsr2h,c
  1886  000F30  C01C  FFDE         	movff	vTaskDelay@delayms,postinc2
  1887  000F34  C01D  FFDD         	movff	vTaskDelay@delayms+1,postdec2
  1888                           
  1889                           ;Structure.c: 216: TaskArray[actualPosition].Delayed=1;
  1890  000F38  5038               	movf	_actualPosition,w,c
  1891  000F3A  0D15               	mullw	21
  1892  000F3C  0E0E               	movlw	14
  1893  000F3E  26F3               	addwf	prodl,f,c
  1894  000F40  0E00               	movlw	0
  1895  000F42  22F4               	addwfc	prodh,f,c
  1896  000F44  0E00               	movlw	low _TaskArray
  1897  000F46  24F3               	addwf	prodl,w,c
  1898  000F48  6ED9               	movwf	fsr2l,c
  1899  000F4A  0E01               	movlw	high _TaskArray
  1900  000F4C  20F4               	addwfc	prodh,w,c
  1901  000F4E  6EDA               	movwf	fsr2h,c
  1902  000F50  0E01               	movlw	1
  1903  000F52  6EDF               	movwf	indf2,c
  1904                           
  1905                           ;Structure.c: 217: cont++;
  1906  000F54  2A09               	incf	_cont,f,c
  1907                           
  1908                           ;Structure.c: 218: TMR0IE=1;
  1909  000F56  8AF2               	bsf	intcon,5,c	;volatile
  1910                           
  1911                           ;Structure.c: 219: STKPTR--;
  1912  000F58  06FC               	decf	stkptr,f,c	;volatile
  1913                           
  1914                           ;Structure.c: 220: OSRun();
  1915  000F5A  ECBA  F003         	call	_OSRun	;wreg free
  1916  000F5E  0012               	return		;funcret
  1917  000F60                     __end_of_vTaskDelay:
  1918                           	opt stack 0
  1919                           tosu	equ	0xFFF
  1920                           tosh	equ	0xFFE
  1921                           tosl	equ	0xFFD
  1922                           stkptr	equ	0xFFC
  1923                           pclatu	equ	0xFFB
  1924                           pclath	equ	0xFFA
  1925                           tblptru	equ	0xFF8
  1926                           tblptrh	equ	0xFF7
  1927                           tblptrl	equ	0xFF6
  1928                           tablat	equ	0xFF5
  1929                           prodh	equ	0xFF4
  1930                           prodl	equ	0xFF3
  1931                           intcon	equ	0xFF2
  1932                           postinc0	equ	0xFEE
  1933                           fsr0h	equ	0xFEA
  1934                           fsr0l	equ	0xFE9
  1935                           wreg	equ	0xFE8
  1936                           postdec1	equ	0xFE5
  1937                           fsr1h	equ	0xFE2
  1938                           fsr1l	equ	0xFE1
  1939                           bsr	equ	0xFE0
  1940                           indf2	equ	0xFDF
  1941                           postinc2	equ	0xFDE
  1942                           postdec2	equ	0xFDD
  1943                           fsr2h	equ	0xFDA
  1944                           fsr2l	equ	0xFD9
  1945                           status	equ	0xFD8
  1946                           
  1947 ;; *************** function _FunctionC *****************
  1948 ;; Defined at:
  1949 ;;		line 52 in file "main.c"
  1950 ;; Parameters:    Size  Location     Type
  1951 ;;		None
  1952 ;; Auto vars:     Size  Location     Type
  1953 ;;		None
  1954 ;; Return value:  Size  Location     Type
  1955 ;;		None               void
  1956 ;; Registers used:
  1957 ;;		wreg, fsr1l, fsr1h, fsr2l, fsr2h, status,2, status,0, prodl, prodh, cstack
  1958 ;; Tracked objects:
  1959 ;;		On entry : 0/0
  1960 ;;		On exit  : 0/0
  1961 ;;		Unchanged: 0/0
  1962 ;; Data sizes:     COMRAM   BANK0   BANK1   BANK2   BANK3   BANK4   BANK5   BANK6   BANK7
  1963 ;;      Params:         0       0       0       0       0       0       0       0       0
  1964 ;;      Locals:         0       0       0       0       0       0       0       0       0
  1965 ;;      Temps:          0       0       0       0       0       0       0       0       0
  1966 ;;      Totals:         0       0       0       0       0       0       0       0       0
  1967 ;;Total ram usage:        0 bytes
  1968 ;; Hardware stack levels used:    1
  1969 ;; Hardware stack levels required when called:    4
  1970 ;; This function calls:
  1971 ;;		_ReadingMailBox
  1972 ;;		_vTaskDelete
  1973 ;; This function is called by:
  1974 ;;		_Low_Priority_Interrupt
  1975 ;; This function uses a non-reentrant model
  1976 ;;
  1977                           
  1978                           	psect	text14
  1979  0013DE                     __ptext14:
  1980                           	opt stack 0
  1981  0013DE                     _FunctionC:
  1982                           	opt stack 24
  1983                           
  1984                           ;incstack = 0
  1985  0013DE  F000               	nop		;# 
  1986  0013E0  F000               	nop		;# 
  1987                           
  1988                           ;main.c: 55: ReadingMailBox(0,y);
  1989  0013E2  C005  F01C         	movff	_y,ReadingMailBox@r
  1990  0013E6  C006  F01D         	movff	_y+1,ReadingMailBox@r+1
  1991  0013EA  0E00               	movlw	0
  1992  0013EC  EC6F  F000         	call	_ReadingMailBox
  1993                           
  1994                           ;main.c: 56: x=*y;
  1995  0013F0  C005  FFD9         	movff	_y,fsr2l
  1996  0013F4  C006  FFDA         	movff	_y+1,fsr2h
  1997  0013F8  CFDE F001          	movff	postinc2,_x	;volatile
  1998  0013FC  CFDE F002          	movff	postinc2,_x+1	;volatile
  1999  001400  CFDE F003          	movff	postinc2,_x+2	;volatile
  2000  001404  CFDE F004          	movff	postinc2,_x+3	;volatile
  2001  001408  F000               	nop		;# 
  2002  00140A  F000               	nop		;# 
  2003                           
  2004                           ;main.c: 61: vTaskDelete();
  2005  00140C  EC93  F00A         	call	_vTaskDelete	;wreg free
  2006  001410  0012               	return		;funcret
  2007  001412                     __end_of_FunctionC:
  2008                           	opt stack 0
  2009                           tosu	equ	0xFFF
  2010                           tosh	equ	0xFFE
  2011                           tosl	equ	0xFFD
  2012                           stkptr	equ	0xFFC
  2013                           pclatu	equ	0xFFB
  2014                           pclath	equ	0xFFA
  2015                           tblptru	equ	0xFF8
  2016                           tblptrh	equ	0xFF7
  2017                           tblptrl	equ	0xFF6
  2018                           tablat	equ	0xFF5
  2019                           prodh	equ	0xFF4
  2020                           prodl	equ	0xFF3
  2021                           intcon	equ	0xFF2
  2022                           postinc0	equ	0xFEE
  2023                           fsr0h	equ	0xFEA
  2024                           fsr0l	equ	0xFE9
  2025                           wreg	equ	0xFE8
  2026                           postdec1	equ	0xFE5
  2027                           fsr1h	equ	0xFE2
  2028                           fsr1l	equ	0xFE1
  2029                           bsr	equ	0xFE0
  2030                           indf2	equ	0xFDF
  2031                           postinc2	equ	0xFDE
  2032                           postdec2	equ	0xFDD
  2033                           fsr2h	equ	0xFDA
  2034                           fsr2l	equ	0xFD9
  2035                           status	equ	0xFD8
  2036                           
  2037 ;; *************** function _FunctionB *****************
  2038 ;; Defined at:
  2039 ;;		line 64 in file "main.c"
  2040 ;; Parameters:    Size  Location     Type
  2041 ;;		None
  2042 ;; Auto vars:     Size  Location     Type
  2043 ;;		None
  2044 ;; Return value:  Size  Location     Type
  2045 ;;		None               void
  2046 ;; Registers used:
  2047 ;;		wreg, fsr1l, fsr1h, fsr2l, fsr2h, status,2, status,0, prodl, prodh, cstack
  2048 ;; Tracked objects:
  2049 ;;		On entry : 0/0
  2050 ;;		On exit  : 0/0
  2051 ;;		Unchanged: 0/0
  2052 ;; Data sizes:     COMRAM   BANK0   BANK1   BANK2   BANK3   BANK4   BANK5   BANK6   BANK7
  2053 ;;      Params:         0       0       0       0       0       0       0       0       0
  2054 ;;      Locals:         0       0       0       0       0       0       0       0       0
  2055 ;;      Temps:          0       0       0       0       0       0       0       0       0
  2056 ;;      Totals:         0       0       0       0       0       0       0       0       0
  2057 ;;Total ram usage:        0 bytes
  2058 ;; Hardware stack levels used:    1
  2059 ;; Hardware stack levels required when called:    4
  2060 ;; This function calls:
  2061 ;;		_DoneWritting
  2062 ;;		_ReadingMailBox
  2063 ;;		_vTaskDelete
  2064 ;; This function is called by:
  2065 ;;		_FunctionA
  2066 ;;		_Low_Priority_Interrupt
  2067 ;; This function uses a non-reentrant model
  2068 ;;
  2069                           
  2070                           	psect	text15
  2071  0012F8                     __ptext15:
  2072                           	opt stack 0
  2073  0012F8                     _FunctionB:
  2074                           	opt stack 24
  2075                           
  2076                           ;incstack = 0
  2077  0012F8  F000               	nop		;# 
  2078  0012FA  F000               	nop		;# 
  2079                           
  2080                           ;main.c: 69: ReadingMailBox(0,y);
  2081  0012FC  C005  F01C         	movff	_y,ReadingMailBox@r
  2082  001300  C006  F01D         	movff	_y+1,ReadingMailBox@r+1
  2083  001304  0E00               	movlw	0
  2084  001306  EC6F  F000         	call	_ReadingMailBox
  2085                           
  2086                           ;main.c: 70: x=*y;
  2087  00130A  C005  FFD9         	movff	_y,fsr2l
  2088  00130E  C006  FFDA         	movff	_y+1,fsr2h
  2089  001312  CFDE F001          	movff	postinc2,_x	;volatile
  2090  001316  CFDE F002          	movff	postinc2,_x+1	;volatile
  2091  00131A  CFDE F003          	movff	postinc2,_x+2	;volatile
  2092  00131E  CFDE F004          	movff	postinc2,_x+3	;volatile
  2093  001322  F000               	nop		;# 
  2094  001324  F000               	nop		;# 
  2095                           
  2096                           ;main.c: 73: ReadingMailBox(0,z);
  2097  001326  C007  F01C         	movff	_z,ReadingMailBox@r
  2098  00132A  C008  F01D         	movff	_z+1,ReadingMailBox@r+1
  2099  00132E  0E00               	movlw	0
  2100  001330  EC6F  F000         	call	_ReadingMailBox
  2101                           
  2102                           ;main.c: 74: x=*z;
  2103  001334  C007  FFD9         	movff	_z,fsr2l
  2104  001338  C008  FFDA         	movff	_z+1,fsr2h
  2105  00133C  CFDE F001          	movff	postinc2,_x	;volatile
  2106  001340  CFDE F002          	movff	postinc2,_x+1	;volatile
  2107  001344  CFDE F003          	movff	postinc2,_x+2	;volatile
  2108  001348  CFDE F004          	movff	postinc2,_x+3	;volatile
  2109  00134C  F000               	nop		;# 
  2110                           
  2111                           ;main.c: 76: DoneWritting(0);
  2112  00134E  0E00               	movlw	0
  2113  001350  EC08  F008         	call	_DoneWritting
  2114                           
  2115                           ;main.c: 77: vTaskDelete();
  2116  001354  EC93  F00A         	call	_vTaskDelete	;wreg free
  2117  001358  0012               	return		;funcret
  2118  00135A                     __end_of_FunctionB:
  2119                           	opt stack 0
  2120                           tosu	equ	0xFFF
  2121                           tosh	equ	0xFFE
  2122                           tosl	equ	0xFFD
  2123                           stkptr	equ	0xFFC
  2124                           pclatu	equ	0xFFB
  2125                           pclath	equ	0xFFA
  2126                           tblptru	equ	0xFF8
  2127                           tblptrh	equ	0xFF7
  2128                           tblptrl	equ	0xFF6
  2129                           tablat	equ	0xFF5
  2130                           prodh	equ	0xFF4
  2131                           prodl	equ	0xFF3
  2132                           intcon	equ	0xFF2
  2133                           postinc0	equ	0xFEE
  2134                           fsr0h	equ	0xFEA
  2135                           fsr0l	equ	0xFE9
  2136                           wreg	equ	0xFE8
  2137                           postdec1	equ	0xFE5
  2138                           fsr1h	equ	0xFE2
  2139                           fsr1l	equ	0xFE1
  2140                           bsr	equ	0xFE0
  2141                           indf2	equ	0xFDF
  2142                           postinc2	equ	0xFDE
  2143                           postdec2	equ	0xFDD
  2144                           fsr2h	equ	0xFDA
  2145                           fsr2l	equ	0xFD9
  2146                           status	equ	0xFD8
  2147                           
  2148 ;; *************** function _ReadingMailBox *****************
  2149 ;; Defined at:
  2150 ;;		line 129 in file "Structure.c"
  2151 ;; Parameters:    Size  Location     Type
  2152 ;;  writter         1    wreg     unsigned char 
  2153 ;;  r               2    1[COMRAM] PTR unsigned long 
  2154 ;;		 -> NULL(0), 
  2155 ;; Auto vars:     Size  Location     Type
  2156 ;;  writter         1    8[COMRAM] unsigned char 
  2157 ;; Return value:  Size  Location     Type
  2158 ;;		None               void
  2159 ;; Registers used:
  2160 ;;		wreg, fsr1l, fsr1h, fsr2l, fsr2h, status,2, status,0, prodl, prodh, cstack
  2161 ;; Tracked objects:
  2162 ;;		On entry : 0/0
  2163 ;;		On exit  : 0/0
  2164 ;;		Unchanged: 0/0
  2165 ;; Data sizes:     COMRAM   BANK0   BANK1   BANK2   BANK3   BANK4   BANK5   BANK6   BANK7
  2166 ;;      Params:         2       0       0       0       0       0       0       0       0
  2167 ;;      Locals:         1       0       0       0       0       0       0       0       0
  2168 ;;      Temps:          5       0       0       0       0       0       0       0       0
  2169 ;;      Totals:         8       0       0       0       0       0       0       0       0
  2170 ;;Total ram usage:        8 bytes
  2171 ;; Hardware stack levels used:    1
  2172 ;; Hardware stack levels required when called:    3
  2173 ;; This function calls:
  2174 ;;		_OSRun
  2175 ;;		_waitForBuffer
  2176 ;; This function is called by:
  2177 ;;		_FunctionC
  2178 ;;		_FunctionB
  2179 ;; This function uses a non-reentrant model
  2180 ;;
  2181                           
  2182                           	psect	text16
  2183  0000DE                     __ptext16:
  2184                           	opt stack 0
  2185  0000DE                     _ReadingMailBox:
  2186                           	opt stack 24
  2187                           
  2188                           ;incstack = 0
  2189                           ;ReadingMailBox@writter stored from wreg
  2190  0000DE  6E23               	movwf	ReadingMailBox@writter,c
  2191                           
  2192                           ;Structure.c: 130: GIE = 0;
  2193  0000E0  9EF2               	bcf	intcon,7,c	;volatile
  2194                           
  2195                           ;Structure.c: 131: for(i_rmb=0;i_rmb<11;i_rmb++){
  2196  0000E2  0E00               	movlw	0
  2197  0000E4  6E0F               	movwf	_i_rmb,c
  2198  0000E6                     i1l1433:
  2199  0000E6  0E0A               	movlw	10
  2200  0000E8  640F               	cpfsgt	_i_rmb,c
  2201  0000EA  D001               	goto	i1l1437
  2202  0000EC  0012               	return	
  2203  0000EE                     i1l1437:
  2204                           
  2205                           ;Structure.c: 132: if(MailBoxArray[i_rmb].Reader==actualPosition &&
  2206                           ;Structure.c: 133: MailBoxArray[i_rmb].Writer==writter){
  2207  0000EE  500F               	movf	_i_rmb,w,c
  2208  0000F0  0D08               	mullw	8
  2209  0000F2  0E60               	movlw	low _MailBoxArray
  2210  0000F4  24F3               	addwf	prodl,w,c
  2211  0000F6  6ED9               	movwf	fsr2l,c
  2212  0000F8  0E00               	movlw	high _MailBoxArray
  2213  0000FA  20F4               	addwfc	prodh,w,c
  2214  0000FC  6EDA               	movwf	fsr2h,c
  2215  0000FE  5038               	movf	_actualPosition,w,c
  2216  000100  18DE               	xorwf	postinc2,w,c
  2217  000102  A4D8               	btfss	status,2,c
  2218  000104  D1A5               	goto	i1l1475
  2219  000106  500F               	movf	_i_rmb,w,c
  2220  000108  0D08               	mullw	8
  2221  00010A  0E01               	movlw	1
  2222  00010C  26F3               	addwf	prodl,f,c
  2223  00010E  0E00               	movlw	0
  2224  000110  22F4               	addwfc	prodh,f,c
  2225  000112  0E60               	movlw	low _MailBoxArray
  2226  000114  24F3               	addwf	prodl,w,c
  2227  000116  6ED9               	movwf	fsr2l,c
  2228  000118  0E00               	movlw	high _MailBoxArray
  2229  00011A  20F4               	addwfc	prodh,w,c
  2230  00011C  6EDA               	movwf	fsr2h,c
  2231  00011E  5023               	movf	ReadingMailBox@writter,w,c
  2232  000120  18DE               	xorwf	postinc2,w,c
  2233  000122  A4D8               	btfss	status,2,c
  2234  000124  D195               	goto	i1l1475
  2235                           
  2236                           ;Structure.c: 134: index_rmb=i_rmb;
  2237  000126  C00F  F015         	movff	_i_rmb,_index_rmb
  2238                           
  2239                           ;Structure.c: 135: i_rmb=100;
  2240  00012A  0E64               	movlw	100
  2241  00012C  6E0F               	movwf	_i_rmb,c
  2242                           
  2243                           ;Structure.c: 136: TaskArray[actualPosition].readInterruptedIndex = index_rmb;
  2244  00012E  5038               	movf	_actualPosition,w,c
  2245  000130  0D15               	mullw	21
  2246  000132  0E13               	movlw	19
  2247  000134  26F3               	addwf	prodl,f,c
  2248  000136  0E00               	movlw	0
  2249  000138  22F4               	addwfc	prodh,f,c
  2250  00013A  0E00               	movlw	low _TaskArray
  2251  00013C  24F3               	addwf	prodl,w,c
  2252  00013E  6ED9               	movwf	fsr2l,c
  2253  000140  0E01               	movlw	high _TaskArray
  2254  000142  20F4               	addwfc	prodh,w,c
  2255  000144  6EDA               	movwf	fsr2h,c
  2256  000146  C015  FFDF         	movff	_index_rmb,indf2
  2257                           
  2258                           ;Structure.c: 137: TaskArray[actualPosition].MessageData=MailBoxArray[index_rmb].Data;
  2259  00014A  5015               	movf	_index_rmb,w,c
  2260  00014C  0D08               	mullw	8
  2261  00014E  0E03               	movlw	3
  2262  000150  26F3               	addwf	prodl,f,c
  2263  000152  0E00               	movlw	0
  2264  000154  22F4               	addwfc	prodh,f,c
  2265  000156  0E60               	movlw	low _MailBoxArray
  2266  000158  24F3               	addwf	prodl,w,c
  2267  00015A  6ED9               	movwf	fsr2l,c
  2268  00015C  0E00               	movlw	high _MailBoxArray
  2269  00015E  20F4               	addwfc	prodh,w,c
  2270  000160  6EDA               	movwf	fsr2h,c
  2271  000162  5038               	movf	_actualPosition,w,c
  2272  000164  0D15               	mullw	21
  2273  000166  0E12               	movlw	18
  2274  000168  26F3               	addwf	prodl,f,c
  2275  00016A  0E00               	movlw	0
  2276  00016C  22F4               	addwfc	prodh,f,c
  2277  00016E  0E00               	movlw	low _TaskArray
  2278  000170  24F3               	addwf	prodl,w,c
  2279  000172  6EE1               	movwf	fsr1l,c
  2280  000174  0E01               	movlw	high _TaskArray
  2281  000176  20F4               	addwfc	prodh,w,c
  2282  000178  6EE2               	movwf	fsr1h,c
  2283  00017A  CFDF FFE7          	movff	indf2,indf1
  2284                           
  2285                           ;Structure.c: 138: if(MailBoxArray[index_rmb].Available==0){
  2286  00017E  5015               	movf	_index_rmb,w,c
  2287  000180  0D08               	mullw	8
  2288  000182  0E02               	movlw	2
  2289  000184  26F3               	addwf	prodl,f,c
  2290  000186  0E00               	movlw	0
  2291  000188  22F4               	addwfc	prodh,f,c
  2292  00018A  0E60               	movlw	low _MailBoxArray
  2293  00018C  24F3               	addwf	prodl,w,c
  2294  00018E  6ED9               	movwf	fsr2l,c
  2295  000190  0E00               	movlw	high _MailBoxArray
  2296  000192  20F4               	addwfc	prodh,w,c
  2297  000194  6EDA               	movwf	fsr2h,c
  2298  000196  50DF               	movf	indf2,w,c
  2299  000198  A4D8               	btfss	status,2,c
  2300  00019A  D02C               	goto	i1l1455
  2301                           
  2302                           ;Structure.c: 139: TaskArray[actualPosition].MessageWritter=writter;
  2303  00019C  5038               	movf	_actualPosition,w,c
  2304  00019E  0D15               	mullw	21
  2305  0001A0  0E10               	movlw	16
  2306  0001A2  26F3               	addwf	prodl,f,c
  2307  0001A4  0E00               	movlw	0
  2308  0001A6  22F4               	addwfc	prodh,f,c
  2309  0001A8  0E00               	movlw	low _TaskArray
  2310  0001AA  24F3               	addwf	prodl,w,c
  2311  0001AC  6ED9               	movwf	fsr2l,c
  2312  0001AE  0E01               	movlw	high _TaskArray
  2313  0001B0  20F4               	addwfc	prodh,w,c
  2314  0001B2  6EDA               	movwf	fsr2h,c
  2315  0001B4  C023  FFDF         	movff	ReadingMailBox@writter,indf2
  2316                           
  2317                           ;Structure.c: 140: TaskArray[actualPosition].WaitMessage = 2;
  2318  0001B8  5038               	movf	_actualPosition,w,c
  2319  0001BA  0D15               	mullw	21
  2320  0001BC  0E0F               	movlw	15
  2321  0001BE  26F3               	addwf	prodl,f,c
  2322  0001C0  0E00               	movlw	0
  2323  0001C2  22F4               	addwfc	prodh,f,c
  2324  0001C4  0E00               	movlw	low _TaskArray
  2325  0001C6  24F3               	addwf	prodl,w,c
  2326  0001C8  6ED9               	movwf	fsr2l,c
  2327  0001CA  0E01               	movlw	high _TaskArray
  2328  0001CC  20F4               	addwfc	prodh,w,c
  2329  0001CE  6EDA               	movwf	fsr2h,c
  2330  0001D0  0E02               	movlw	2
  2331  0001D2  6EDF               	movwf	indf2,c
  2332                           
  2333                           ;Structure.c: 141: TaskArray[actualPosition].state = 1;
  2334  0001D4  5038               	movf	_actualPosition,w,c
  2335  0001D6  0D15               	mullw	21
  2336  0001D8  0E03               	movlw	3
  2337  0001DA  26F3               	addwf	prodl,f,c
  2338  0001DC  0E00               	movlw	0
  2339  0001DE  22F4               	addwfc	prodh,f,c
  2340  0001E0  0E00               	movlw	low _TaskArray
  2341  0001E2  24F3               	addwf	prodl,w,c
  2342  0001E4  6ED9               	movwf	fsr2l,c
  2343  0001E6  0E01               	movlw	high _TaskArray
  2344  0001E8  20F4               	addwfc	prodh,w,c
  2345  0001EA  6EDA               	movwf	fsr2h,c
  2346  0001EC  0E01               	movlw	1
  2347  0001EE  6EDF               	movwf	indf2,c
  2348                           
  2349                           ;Structure.c: 142: waitForBuffer();
  2350  0001F0  EC07  F009         	call	_waitForBuffer	;wreg free
  2351  0001F4                     i1l1455:
  2352                           
  2353                           ;Structure.c: 143: }
  2354                           ;Structure.c: 144: MailBoxArray[ TaskArray[actualPosition].readInterruptedIndex ].Availa
      +                          ble=0;
  2355  0001F4  5038               	movf	_actualPosition,w,c
  2356  0001F6  0D15               	mullw	21
  2357  0001F8  0E13               	movlw	19
  2358  0001FA  26F3               	addwf	prodl,f,c
  2359  0001FC  0E00               	movlw	0
  2360  0001FE  22F4               	addwfc	prodh,f,c
  2361  000200  0E00               	movlw	low _TaskArray
  2362  000202  24F3               	addwf	prodl,w,c
  2363  000204  6ED9               	movwf	fsr2l,c
  2364  000206  0E01               	movlw	high _TaskArray
  2365  000208  20F4               	addwfc	prodh,w,c
  2366  00020A  6EDA               	movwf	fsr2h,c
  2367  00020C  50DF               	movf	indf2,w,c
  2368  00020E  6E1E               	movwf	??_ReadingMailBox& (0+255),c
  2369  000210  501E               	movf	??_ReadingMailBox,w,c
  2370  000212  0D08               	mullw	8
  2371  000214  0E02               	movlw	2
  2372  000216  26F3               	addwf	prodl,f,c
  2373  000218  0E00               	movlw	0
  2374  00021A  22F4               	addwfc	prodh,f,c
  2375  00021C  0E60               	movlw	low _MailBoxArray
  2376  00021E  24F3               	addwf	prodl,w,c
  2377  000220  6ED9               	movwf	fsr2l,c
  2378  000222  0E00               	movlw	high _MailBoxArray
  2379  000224  20F4               	addwfc	prodh,w,c
  2380  000226  6EDA               	movwf	fsr2h,c
  2381  000228  0E00               	movlw	0
  2382  00022A  6EDF               	movwf	indf2,c
  2383                           
  2384                           ;Structure.c: 145: MailBoxArray[ TaskArray[actualPosition].readInterruptedIndex ].Data= 
      +                          TaskArray[actualPosition].MessageData;
  2385  00022C  5038               	movf	_actualPosition,w,c
  2386  00022E  0D15               	mullw	21
  2387  000230  0E12               	movlw	18
  2388  000232  26F3               	addwf	prodl,f,c
  2389  000234  0E00               	movlw	0
  2390  000236  22F4               	addwfc	prodh,f,c
  2391  000238  0E00               	movlw	low _TaskArray
  2392  00023A  24F3               	addwf	prodl,w,c
  2393  00023C  6ED9               	movwf	fsr2l,c
  2394  00023E  0E01               	movlw	high _TaskArray
  2395  000240  20F4               	addwfc	prodh,w,c
  2396  000242  6EDA               	movwf	fsr2h,c
  2397  000244  5038               	movf	_actualPosition,w,c
  2398  000246  0D15               	mullw	21
  2399  000248  0E13               	movlw	19
  2400  00024A  26F3               	addwf	prodl,f,c
  2401  00024C  0E00               	movlw	0
  2402  00024E  22F4               	addwfc	prodh,f,c
  2403  000250  0E00               	movlw	low _TaskArray
  2404  000252  24F3               	addwf	prodl,w,c
  2405  000254  6EE1               	movwf	fsr1l,c
  2406  000256  0E01               	movlw	high _TaskArray
  2407  000258  20F4               	addwfc	prodh,w,c
  2408  00025A  6EE2               	movwf	fsr1h,c
  2409  00025C  50E7               	movf	indf1,w,c
  2410  00025E  6E1E               	movwf	??_ReadingMailBox& (0+255),c
  2411  000260  501E               	movf	??_ReadingMailBox,w,c
  2412  000262  0D08               	mullw	8
  2413  000264  0E03               	movlw	3
  2414  000266  26F3               	addwf	prodl,f,c
  2415  000268  0E00               	movlw	0
  2416  00026A  22F4               	addwfc	prodh,f,c
  2417  00026C  0E60               	movlw	low _MailBoxArray
  2418  00026E  24F3               	addwf	prodl,w,c
  2419  000270  6EE1               	movwf	fsr1l,c
  2420  000272  0E00               	movlw	high _MailBoxArray
  2421  000274  20F4               	addwfc	prodh,w,c
  2422  000276  6EE2               	movwf	fsr1h,c
  2423  000278  CFDF FFE7          	movff	indf2,indf1
  2424                           
  2425                           ;Structure.c: 146: i_rmb = TaskArray[actualPosition].readInterruptedIndex;
  2426  00027C  5038               	movf	_actualPosition,w,c
  2427  00027E  0D15               	mullw	21
  2428  000280  0E13               	movlw	19
  2429  000282  26F3               	addwf	prodl,f,c
  2430  000284  0E00               	movlw	0
  2431  000286  22F4               	addwfc	prodh,f,c
  2432  000288  0E00               	movlw	low _TaskArray
  2433  00028A  24F3               	addwf	prodl,w,c
  2434  00028C  6ED9               	movwf	fsr2l,c
  2435  00028E  0E01               	movlw	high _TaskArray
  2436  000290  20F4               	addwfc	prodh,w,c
  2437  000292  6EDA               	movwf	fsr2h,c
  2438  000294  50DF               	movf	indf2,w,c
  2439  000296  6E0F               	movwf	_i_rmb,c
  2440                           
  2441                           ;Structure.c: 148: *r=MailBoxArray[i_rmb].Data;
  2442  000298  500F               	movf	_i_rmb,w,c
  2443  00029A  0D08               	mullw	8
  2444  00029C  0E03               	movlw	3
  2445  00029E  26F3               	addwf	prodl,f,c
  2446  0002A0  0E00               	movlw	0
  2447  0002A2  22F4               	addwfc	prodh,f,c
  2448  0002A4  0E60               	movlw	low _MailBoxArray
  2449  0002A6  24F3               	addwf	prodl,w,c
  2450  0002A8  6ED9               	movwf	fsr2l,c
  2451  0002AA  0E00               	movlw	high _MailBoxArray
  2452  0002AC  20F4               	addwfc	prodh,w,c
  2453  0002AE  6EDA               	movwf	fsr2h,c
  2454  0002B0  50DF               	movf	indf2,w,c
  2455  0002B2  6E1E               	movwf	??_ReadingMailBox& (0+255),c
  2456  0002B4  C01E  F01F         	movff	??_ReadingMailBox,??_ReadingMailBox+1
  2457  0002B8  6A20               	clrf	(??_ReadingMailBox+2)& (0+255),c
  2458  0002BA  6A21               	clrf	(??_ReadingMailBox+3)& (0+255),c
  2459  0002BC  6A22               	clrf	(??_ReadingMailBox+4)& (0+255),c
  2460  0002BE  C01C  FFD9         	movff	ReadingMailBox@r,fsr2l
  2461  0002C2  C01D  FFDA         	movff	ReadingMailBox@r+1,fsr2h
  2462  0002C6  C01F  FFDE         	movff	??_ReadingMailBox+1,postinc2
  2463  0002CA  C020  FFDE         	movff	??_ReadingMailBox+2,postinc2
  2464  0002CE  C021  FFDE         	movff	??_ReadingMailBox+3,postinc2
  2465  0002D2  C022  FFDE         	movff	??_ReadingMailBox+4,postinc2
  2466                           
  2467                           ;Structure.c: 151: if( (TaskArray[MailBoxArray[i_rmb].Writer].MessageReader == actualPos
      +                          ition) && TaskArray[ MailBoxArray[ i_rmb ].Writer ].state == 1 && TaskArray[ MailBoxArra
      +                          y[ i_rmb ].Writer].WaitMessage == 1){
  2468  0002D6  500F               	movf	_i_rmb,w,c
  2469  0002D8  0D08               	mullw	8
  2470  0002DA  0E01               	movlw	1
  2471  0002DC  26F3               	addwf	prodl,f,c
  2472  0002DE  0E00               	movlw	0
  2473  0002E0  22F4               	addwfc	prodh,f,c
  2474  0002E2  0E60               	movlw	low _MailBoxArray
  2475  0002E4  24F3               	addwf	prodl,w,c
  2476  0002E6  6ED9               	movwf	fsr2l,c
  2477  0002E8  0E00               	movlw	high _MailBoxArray
  2478  0002EA  20F4               	addwfc	prodh,w,c
  2479  0002EC  6EDA               	movwf	fsr2h,c
  2480  0002EE  50DF               	movf	indf2,w,c
  2481  0002F0  6E1E               	movwf	??_ReadingMailBox& (0+255),c
  2482  0002F2  501E               	movf	??_ReadingMailBox,w,c
  2483  0002F4  0D15               	mullw	21
  2484  0002F6  0E11               	movlw	17
  2485  0002F8  26F3               	addwf	prodl,f,c
  2486  0002FA  0E00               	movlw	0
  2487  0002FC  22F4               	addwfc	prodh,f,c
  2488  0002FE  0E00               	movlw	low _TaskArray
  2489  000300  24F3               	addwf	prodl,w,c
  2490  000302  6ED9               	movwf	fsr2l,c
  2491  000304  0E01               	movlw	high _TaskArray
  2492  000306  20F4               	addwfc	prodh,w,c
  2493  000308  6EDA               	movwf	fsr2h,c
  2494  00030A  5038               	movf	_actualPosition,w,c
  2495  00030C  18DE               	xorwf	postinc2,w,c
  2496  00030E  A4D8               	btfss	status,2,c
  2497  000310  D09F               	goto	i1l1475
  2498  000312  500F               	movf	_i_rmb,w,c
  2499  000314  0D08               	mullw	8
  2500  000316  0E01               	movlw	1
  2501  000318  26F3               	addwf	prodl,f,c
  2502  00031A  0E00               	movlw	0
  2503  00031C  22F4               	addwfc	prodh,f,c
  2504  00031E  0E60               	movlw	low _MailBoxArray
  2505  000320  24F3               	addwf	prodl,w,c
  2506  000322  6ED9               	movwf	fsr2l,c
  2507  000324  0E00               	movlw	high _MailBoxArray
  2508  000326  20F4               	addwfc	prodh,w,c
  2509  000328  6EDA               	movwf	fsr2h,c
  2510  00032A  50DF               	movf	indf2,w,c
  2511  00032C  6E1E               	movwf	??_ReadingMailBox& (0+255),c
  2512  00032E  501E               	movf	??_ReadingMailBox,w,c
  2513  000330  0D15               	mullw	21
  2514  000332  0E03               	movlw	3
  2515  000334  26F3               	addwf	prodl,f,c
  2516  000336  0E00               	movlw	0
  2517  000338  22F4               	addwfc	prodh,f,c
  2518  00033A  0E00               	movlw	low _TaskArray
  2519  00033C  24F3               	addwf	prodl,w,c
  2520  00033E  6ED9               	movwf	fsr2l,c
  2521  000340  0E01               	movlw	high _TaskArray
  2522  000342  20F4               	addwfc	prodh,w,c
  2523  000344  6EDA               	movwf	fsr2h,c
  2524  000346  04DE               	decf	postinc2,w,c
  2525  000348  A4D8               	btfss	status,2,c
  2526  00034A  D082               	goto	i1l1475
  2527  00034C  500F               	movf	_i_rmb,w,c
  2528  00034E  0D08               	mullw	8
  2529  000350  0E01               	movlw	1
  2530  000352  26F3               	addwf	prodl,f,c
  2531  000354  0E00               	movlw	0
  2532  000356  22F4               	addwfc	prodh,f,c
  2533  000358  0E60               	movlw	low _MailBoxArray
  2534  00035A  24F3               	addwf	prodl,w,c
  2535  00035C  6ED9               	movwf	fsr2l,c
  2536  00035E  0E00               	movlw	high _MailBoxArray
  2537  000360  20F4               	addwfc	prodh,w,c
  2538  000362  6EDA               	movwf	fsr2h,c
  2539  000364  50DF               	movf	indf2,w,c
  2540  000366  6E1E               	movwf	??_ReadingMailBox& (0+255),c
  2541  000368  501E               	movf	??_ReadingMailBox,w,c
  2542  00036A  0D15               	mullw	21
  2543  00036C  0E0F               	movlw	15
  2544  00036E  26F3               	addwf	prodl,f,c
  2545  000370  0E00               	movlw	0
  2546  000372  22F4               	addwfc	prodh,f,c
  2547  000374  0E00               	movlw	low _TaskArray
  2548  000376  24F3               	addwf	prodl,w,c
  2549  000378  6ED9               	movwf	fsr2l,c
  2550  00037A  0E01               	movlw	high _TaskArray
  2551  00037C  20F4               	addwfc	prodh,w,c
  2552  00037E  6EDA               	movwf	fsr2h,c
  2553  000380  04DE               	decf	postinc2,w,c
  2554  000382  A4D8               	btfss	status,2,c
  2555  000384  D065               	goto	i1l1475
  2556                           
  2557                           ;Structure.c: 152: TaskArray[ MailBoxArray[ i_rmb ].Writer ].state = 2;
  2558  000386  500F               	movf	_i_rmb,w,c
  2559  000388  0D08               	mullw	8
  2560  00038A  0E01               	movlw	1
  2561  00038C  26F3               	addwf	prodl,f,c
  2562  00038E  0E00               	movlw	0
  2563  000390  22F4               	addwfc	prodh,f,c
  2564  000392  0E60               	movlw	low _MailBoxArray
  2565  000394  24F3               	addwf	prodl,w,c
  2566  000396  6ED9               	movwf	fsr2l,c
  2567  000398  0E00               	movlw	high _MailBoxArray
  2568  00039A  20F4               	addwfc	prodh,w,c
  2569  00039C  6EDA               	movwf	fsr2h,c
  2570  00039E  50DF               	movf	indf2,w,c
  2571  0003A0  6E1E               	movwf	??_ReadingMailBox& (0+255),c
  2572  0003A2  501E               	movf	??_ReadingMailBox,w,c
  2573  0003A4  0D15               	mullw	21
  2574  0003A6  0E03               	movlw	3
  2575  0003A8  26F3               	addwf	prodl,f,c
  2576  0003AA  0E00               	movlw	0
  2577  0003AC  22F4               	addwfc	prodh,f,c
  2578  0003AE  0E00               	movlw	low _TaskArray
  2579  0003B0  24F3               	addwf	prodl,w,c
  2580  0003B2  6ED9               	movwf	fsr2l,c
  2581  0003B4  0E01               	movlw	high _TaskArray
  2582  0003B6  20F4               	addwfc	prodh,w,c
  2583  0003B8  6EDA               	movwf	fsr2h,c
  2584  0003BA  0E02               	movlw	2
  2585  0003BC  6EDF               	movwf	indf2,c
  2586                           
  2587                           ;Structure.c: 153: TaskArray[ MailBoxArray[ i_rmb ].Writer].WaitMessage = 0;
  2588  0003BE  500F               	movf	_i_rmb,w,c
  2589  0003C0  0D08               	mullw	8
  2590  0003C2  0E01               	movlw	1
  2591  0003C4  26F3               	addwf	prodl,f,c
  2592  0003C6  0E00               	movlw	0
  2593  0003C8  22F4               	addwfc	prodh,f,c
  2594  0003CA  0E60               	movlw	low _MailBoxArray
  2595  0003CC  24F3               	addwf	prodl,w,c
  2596  0003CE  6ED9               	movwf	fsr2l,c
  2597  0003D0  0E00               	movlw	high _MailBoxArray
  2598  0003D2  20F4               	addwfc	prodh,w,c
  2599  0003D4  6EDA               	movwf	fsr2h,c
  2600  0003D6  50DF               	movf	indf2,w,c
  2601  0003D8  6E1E               	movwf	??_ReadingMailBox& (0+255),c
  2602  0003DA  501E               	movf	??_ReadingMailBox,w,c
  2603  0003DC  0D15               	mullw	21
  2604  0003DE  0E0F               	movlw	15
  2605  0003E0  26F3               	addwf	prodl,f,c
  2606  0003E2  0E00               	movlw	0
  2607  0003E4  22F4               	addwfc	prodh,f,c
  2608  0003E6  0E00               	movlw	low _TaskArray
  2609  0003E8  24F3               	addwf	prodl,w,c
  2610  0003EA  6ED9               	movwf	fsr2l,c
  2611  0003EC  0E01               	movlw	high _TaskArray
  2612  0003EE  20F4               	addwfc	prodh,w,c
  2613  0003F0  6EDA               	movwf	fsr2h,c
  2614  0003F2  0E00               	movlw	0
  2615  0003F4  6EDF               	movwf	indf2,c
  2616                           
  2617                           ;Structure.c: 155: TaskArray[actualPosition].currentAdd3=TOSU;
  2618  0003F6  5038               	movf	_actualPosition,w,c
  2619  0003F8  0D15               	mullw	21
  2620  0003FA  0E08               	movlw	8
  2621  0003FC  26F3               	addwf	prodl,f,c
  2622  0003FE  0E00               	movlw	0
  2623  000400  22F4               	addwfc	prodh,f,c
  2624  000402  0E00               	movlw	low _TaskArray
  2625  000404  24F3               	addwf	prodl,w,c
  2626  000406  6ED9               	movwf	fsr2l,c
  2627  000408  0E01               	movlw	high _TaskArray
  2628  00040A  20F4               	addwfc	prodh,w,c
  2629  00040C  6EDA               	movwf	fsr2h,c
  2630  00040E  CFFF FFDF          	movff	tosu,indf2	;volatile
  2631                           
  2632                           ;Structure.c: 156: TaskArray[actualPosition].currentAdd2=TOSH;
  2633  000412  5038               	movf	_actualPosition,w,c
  2634  000414  0D15               	mullw	21
  2635  000416  0E07               	movlw	7
  2636  000418  26F3               	addwf	prodl,f,c
  2637  00041A  0E00               	movlw	0
  2638  00041C  22F4               	addwfc	prodh,f,c
  2639  00041E  0E00               	movlw	low _TaskArray
  2640  000420  24F3               	addwf	prodl,w,c
  2641  000422  6ED9               	movwf	fsr2l,c
  2642  000424  0E01               	movlw	high _TaskArray
  2643  000426  20F4               	addwfc	prodh,w,c
  2644  000428  6EDA               	movwf	fsr2h,c
  2645  00042A  CFFE FFDF          	movff	tosh,indf2	;volatile
  2646                           
  2647                           ;Structure.c: 157: TaskArray[actualPosition].currentAdd1=TOSL;
  2648  00042E  5038               	movf	_actualPosition,w,c
  2649  000430  0D15               	mullw	21
  2650  000432  0E06               	movlw	6
  2651  000434  26F3               	addwf	prodl,f,c
  2652  000436  0E00               	movlw	0
  2653  000438  22F4               	addwfc	prodh,f,c
  2654  00043A  0E00               	movlw	low _TaskArray
  2655  00043C  24F3               	addwf	prodl,w,c
  2656  00043E  6ED9               	movwf	fsr2l,c
  2657  000440  0E01               	movlw	high _TaskArray
  2658  000442  20F4               	addwfc	prodh,w,c
  2659  000444  6EDA               	movwf	fsr2h,c
  2660  000446  CFFD FFDF          	movff	tosl,indf2	;volatile
  2661                           
  2662                           ;Structure.c: 158: STKPTR--;
  2663  00044A  06FC               	decf	stkptr,f,c	;volatile
  2664                           
  2665                           ;Structure.c: 159: OSRun();
  2666  00044C  ECBA  F003         	call	_OSRun	;wreg free
  2667  000450                     i1l1475:
  2668  000450  2A0F               	incf	_i_rmb,f,c
  2669  000452  D649               	goto	i1l1433
  2670  000454                     __end_of_ReadingMailBox:
  2671                           	opt stack 0
  2672                           tosu	equ	0xFFF
  2673                           tosh	equ	0xFFE
  2674                           tosl	equ	0xFFD
  2675                           stkptr	equ	0xFFC
  2676                           pclatu	equ	0xFFB
  2677                           pclath	equ	0xFFA
  2678                           tblptru	equ	0xFF8
  2679                           tblptrh	equ	0xFF7
  2680                           tblptrl	equ	0xFF6
  2681                           tablat	equ	0xFF5
  2682                           prodh	equ	0xFF4
  2683                           prodl	equ	0xFF3
  2684                           intcon	equ	0xFF2
  2685                           postinc0	equ	0xFEE
  2686                           fsr0h	equ	0xFEA
  2687                           fsr0l	equ	0xFE9
  2688                           wreg	equ	0xFE8
  2689                           indf1	equ	0xFE7
  2690                           postdec1	equ	0xFE5
  2691                           fsr1h	equ	0xFE2
  2692                           fsr1l	equ	0xFE1
  2693                           bsr	equ	0xFE0
  2694                           indf2	equ	0xFDF
  2695                           postinc2	equ	0xFDE
  2696                           postdec2	equ	0xFDD
  2697                           fsr2h	equ	0xFDA
  2698                           fsr2l	equ	0xFD9
  2699                           status	equ	0xFD8
  2700                           
  2701 ;; *************** function _DoneWritting *****************
  2702 ;; Defined at:
  2703 ;;		line 180 in file "Structure.c"
  2704 ;; Parameters:    Size  Location     Type
  2705 ;;  reader          1    wreg     unsigned char 
  2706 ;; Auto vars:     Size  Location     Type
  2707 ;;  reader          1    1[COMRAM] unsigned char 
  2708 ;; Return value:  Size  Location     Type
  2709 ;;		None               void
  2710 ;; Registers used:
  2711 ;;		wreg, fsr2l, fsr2h, status,2, status,0, prodl, prodh
  2712 ;; Tracked objects:
  2713 ;;		On entry : 0/0
  2714 ;;		On exit  : 0/0
  2715 ;;		Unchanged: 0/0
  2716 ;; Data sizes:     COMRAM   BANK0   BANK1   BANK2   BANK3   BANK4   BANK5   BANK6   BANK7
  2717 ;;      Params:         0       0       0       0       0       0       0       0       0
  2718 ;;      Locals:         1       0       0       0       0       0       0       0       0
  2719 ;;      Temps:          1       0       0       0       0       0       0       0       0
  2720 ;;      Totals:         2       0       0       0       0       0       0       0       0
  2721 ;;Total ram usage:        2 bytes
  2722 ;; Hardware stack levels used:    1
  2723 ;; Hardware stack levels required when called:    2
  2724 ;; This function calls:
  2725 ;;		Nothing
  2726 ;; This function is called by:
  2727 ;;		_FunctionB
  2728 ;; This function uses a non-reentrant model
  2729 ;;
  2730                           
  2731                           	psect	text17
  2732  001010                     __ptext17:
  2733                           	opt stack 0
  2734  001010                     _DoneWritting:
  2735                           	opt stack 25
  2736                           
  2737                           ;incstack = 0
  2738                           ;DoneWritting@reader stored from wreg
  2739  001010  6E1C               	movwf	DoneWritting@reader,c
  2740                           
  2741                           ;Structure.c: 181: GIE = 0;
  2742  001012  9EF2               	bcf	intcon,7,c	;volatile
  2743                           
  2744                           ;Structure.c: 182: index_dw=10;
  2745  001014  0E0A               	movlw	10
  2746  001016  6E13               	movwf	_index_dw,c
  2747                           
  2748                           ;Structure.c: 183: for(i_dw=0;i_dw<11;i_dw++){
  2749  001018  0E00               	movlw	0
  2750  00101A  6E0D               	movwf	_i_dw,c
  2751  00101C                     i1l1483:
  2752  00101C  0E0A               	movlw	10
  2753  00101E  640D               	cpfsgt	_i_dw,c
  2754  001020  D001               	goto	i1l1487
  2755  001022  D01F               	goto	i1l1497
  2756  001024                     i1l1487:
  2757                           
  2758                           ;Structure.c: 184: if(MailBoxArray[i_dw].Reader==reader && MailBoxArray[i_dw].Writer==ac
      +                          tualPosition){
  2759  001024  500D               	movf	_i_dw,w,c
  2760  001026  0D08               	mullw	8
  2761  001028  0E60               	movlw	low _MailBoxArray
  2762  00102A  24F3               	addwf	prodl,w,c
  2763  00102C  6ED9               	movwf	fsr2l,c
  2764  00102E  0E00               	movlw	high _MailBoxArray
  2765  001030  20F4               	addwfc	prodh,w,c
  2766  001032  6EDA               	movwf	fsr2h,c
  2767  001034  501C               	movf	DoneWritting@reader,w,c
  2768  001036  18DE               	xorwf	postinc2,w,c
  2769  001038  A4D8               	btfss	status,2,c
  2770  00103A  D011               	goto	i1l1493
  2771  00103C  500D               	movf	_i_dw,w,c
  2772  00103E  0D08               	mullw	8
  2773  001040  0E01               	movlw	1
  2774  001042  26F3               	addwf	prodl,f,c
  2775  001044  0E00               	movlw	0
  2776  001046  22F4               	addwfc	prodh,f,c
  2777  001048  0E60               	movlw	low _MailBoxArray
  2778  00104A  24F3               	addwf	prodl,w,c
  2779  00104C  6ED9               	movwf	fsr2l,c
  2780  00104E  0E00               	movlw	high _MailBoxArray
  2781  001050  20F4               	addwfc	prodh,w,c
  2782  001052  6EDA               	movwf	fsr2h,c
  2783  001054  5038               	movf	_actualPosition,w,c
  2784  001056  18DE               	xorwf	postinc2,w,c
  2785  001058  B4D8               	btfsc	status,2,c
  2786                           
  2787                           ;Structure.c: 185: index_dw=i_dw;
  2788  00105A  C00D  F013         	movff	_i_dw,_index_dw
  2789  00105E                     i1l1493:
  2790  00105E  2A0D               	incf	_i_dw,f,c
  2791  001060  D7DD               	goto	i1l1483
  2792  001062                     i1l1497:
  2793                           
  2794                           ;Structure.c: 186: }
  2795                           ;Structure.c: 187: }
  2796                           ;Structure.c: 188: MailBoxArray[index_dw].WriterDone=1;
  2797  001062  5013               	movf	_index_dw,w,c
  2798  001064  0D08               	mullw	8
  2799  001066  0E04               	movlw	4
  2800  001068  26F3               	addwf	prodl,f,c
  2801  00106A  0E00               	movlw	0
  2802  00106C  22F4               	addwfc	prodh,f,c
  2803  00106E  0E60               	movlw	low _MailBoxArray
  2804  001070  24F3               	addwf	prodl,w,c
  2805  001072  6ED9               	movwf	fsr2l,c
  2806  001074  0E00               	movlw	high _MailBoxArray
  2807  001076  20F4               	addwfc	prodh,w,c
  2808  001078  6EDA               	movwf	fsr2h,c
  2809  00107A  0E01               	movlw	1
  2810  00107C  6EDF               	movwf	indf2,c
  2811                           
  2812                           ;Structure.c: 189: if(MailBoxArray[index_dw].ReaderDone==1){
  2813  00107E  5013               	movf	_index_dw,w,c
  2814  001080  0D08               	mullw	8
  2815  001082  0E05               	movlw	5
  2816  001084  26F3               	addwf	prodl,f,c
  2817  001086  0E00               	movlw	0
  2818  001088  22F4               	addwfc	prodh,f,c
  2819  00108A  0E60               	movlw	low _MailBoxArray
  2820  00108C  24F3               	addwf	prodl,w,c
  2821  00108E  6ED9               	movwf	fsr2l,c
  2822  001090  0E00               	movlw	high _MailBoxArray
  2823  001092  20F4               	addwfc	prodh,w,c
  2824  001094  6EDA               	movwf	fsr2h,c
  2825  001096  04DE               	decf	postinc2,w,c
  2826  001098  A4D8               	btfss	status,2,c
  2827  00109A  0012               	return	
  2828                           
  2829                           ;Structure.c: 190: MailBoxArray[index_dw].Connected=0;
  2830  00109C  5013               	movf	_index_dw,w,c
  2831  00109E  0D08               	mullw	8
  2832  0010A0  0E06               	movlw	6
  2833  0010A2  26F3               	addwf	prodl,f,c
  2834  0010A4  0E00               	movlw	0
  2835  0010A6  22F4               	addwfc	prodh,f,c
  2836  0010A8  0E60               	movlw	low _MailBoxArray
  2837  0010AA  24F3               	addwf	prodl,w,c
  2838  0010AC  6ED9               	movwf	fsr2l,c
  2839  0010AE  0E00               	movlw	high _MailBoxArray
  2840  0010B0  20F4               	addwfc	prodh,w,c
  2841  0010B2  6EDA               	movwf	fsr2h,c
  2842  0010B4  0E00               	movlw	0
  2843  0010B6  6EDF               	movwf	indf2,c
  2844  0010B8  0012               	return	
  2845  0010BA                     __end_of_DoneWritting:
  2846                           	opt stack 0
  2847                           tosu	equ	0xFFF
  2848                           tosh	equ	0xFFE
  2849                           tosl	equ	0xFFD
  2850                           stkptr	equ	0xFFC
  2851                           pclatu	equ	0xFFB
  2852                           pclath	equ	0xFFA
  2853                           tblptru	equ	0xFF8
  2854                           tblptrh	equ	0xFF7
  2855                           tblptrl	equ	0xFF6
  2856                           tablat	equ	0xFF5
  2857                           prodh	equ	0xFF4
  2858                           prodl	equ	0xFF3
  2859                           intcon	equ	0xFF2
  2860                           postinc0	equ	0xFEE
  2861                           fsr0h	equ	0xFEA
  2862                           fsr0l	equ	0xFE9
  2863                           wreg	equ	0xFE8
  2864                           indf1	equ	0xFE7
  2865                           postdec1	equ	0xFE5
  2866                           fsr1h	equ	0xFE2
  2867                           fsr1l	equ	0xFE1
  2868                           bsr	equ	0xFE0
  2869                           indf2	equ	0xFDF
  2870                           postinc2	equ	0xFDE
  2871                           postdec2	equ	0xFDD
  2872                           fsr2h	equ	0xFDA
  2873                           fsr2l	equ	0xFD9
  2874                           status	equ	0xFD8
  2875                           
  2876 ;; *************** function _FunctionA *****************
  2877 ;; Defined at:
  2878 ;;		line 81 in file "main.c"
  2879 ;; Parameters:    Size  Location     Type
  2880 ;;		None
  2881 ;; Auto vars:     Size  Location     Type
  2882 ;;		None
  2883 ;; Return value:  Size  Location     Type
  2884 ;;		None               void
  2885 ;; Registers used:
  2886 ;;		wreg, fsr1l, fsr1h, fsr2l, fsr2h, status,2, status,0, prodl, prodh, cstack
  2887 ;; Tracked objects:
  2888 ;;		On entry : 0/0
  2889 ;;		On exit  : 0/0
  2890 ;;		Unchanged: 0/0
  2891 ;; Data sizes:     COMRAM   BANK0   BANK1   BANK2   BANK3   BANK4   BANK5   BANK6   BANK7
  2892 ;;      Params:         0       0       0       0       0       0       0       0       0
  2893 ;;      Locals:         0       0       0       0       0       0       0       0       0
  2894 ;;      Temps:          0       0       0       0       0       0       0       0       0
  2895 ;;      Totals:         0       0       0       0       0       0       0       0       0
  2896 ;;Total ram usage:        0 bytes
  2897 ;; Hardware stack levels used:    1
  2898 ;; Hardware stack levels required when called:    4
  2899 ;; This function calls:
  2900 ;;		_DoneReading
  2901 ;;		_WritingMailBox
  2902 ;;		_mailBox_init_conection
  2903 ;;		_vTaskDelete
  2904 ;;		_xTaskCreate
  2905 ;; This function is called by:
  2906 ;;		_High_Priority_Interrupt
  2907 ;;		_Low_Priority_Interrupt
  2908 ;; This function uses a non-reentrant model
  2909 ;;
  2910                           
  2911                           	psect	text18
  2912  001290                     __ptext18:
  2913                           	opt stack 0
  2914  001290                     _FunctionA:
  2915                           	opt stack 24
  2916                           
  2917                           ;incstack = 0
  2918  001290  F000               	nop		;# 
  2919  001292  F000               	nop		;# 
  2920  001294  F000               	nop		;# 
  2921                           
  2922                           ;main.c: 86: xTaskCreate(FunctionB,1,10);
  2923  001296  0EF8               	movlw	low _FunctionB
  2924  001298  6E1C               	movwf	xTaskCreate@pvTaskCode,c
  2925  00129A  0E12               	movlw	high _FunctionB
  2926  00129C  6E1D               	movwf	xTaskCreate@pvTaskCode+1,c
  2927  00129E  0E00               	movlw	low (_FunctionB shr (0+16))
  2928  0012A0  6E1E               	movwf	xTaskCreate@pvTaskCode+2,c
  2929  0012A2  0E00               	movlw	high (_FunctionB shr (0+16))
  2930  0012A4  6E1F               	movwf	xTaskCreate@pvTaskCode+3,c
  2931  0012A6  0E01               	movlw	1
  2932  0012A8  6E20               	movwf	xTaskCreate@Id,c
  2933  0012AA  0E0A               	movlw	10
  2934  0012AC  6E21               	movwf	xTaskCreate@Prior,c
  2935  0012AE  EC90  F004         	call	_xTaskCreate	;wreg free
  2936                           
  2937                           ;main.c: 87: mailBox_init_conection(1,0);
  2938  0012B2  0E00               	movlw	0
  2939  0012B4  6E1B               	movwf	mailBox_init_conection@writer,c
  2940  0012B6  0E01               	movlw	1
  2941  0012B8  EC32  F006         	call	_mailBox_init_conection
  2942                           
  2943                           ;main.c: 89: WritingMailBox(1,1);
  2944  0012BC  0E01               	movlw	1
  2945  0012BE  6E1C               	movwf	WritingMailBox@reader,c
  2946  0012C0  0E01               	movlw	1
  2947  0012C2  EC2A  F002         	call	_WritingMailBox
  2948                           
  2949                           ;main.c: 90: WritingMailBox(2,1);
  2950  0012C6  0E01               	movlw	1
  2951  0012C8  6E1C               	movwf	WritingMailBox@reader,c
  2952  0012CA  0E02               	movlw	2
  2953  0012CC  EC2A  F002         	call	_WritingMailBox
  2954                           
  2955                           ;main.c: 91: x=*y;
  2956  0012D0  C005  FFD9         	movff	_y,fsr2l
  2957  0012D4  C006  FFDA         	movff	_y+1,fsr2h
  2958  0012D8  CFDE F001          	movff	postinc2,_x	;volatile
  2959  0012DC  CFDE F002          	movff	postinc2,_x+1	;volatile
  2960  0012E0  CFDE F003          	movff	postinc2,_x+2	;volatile
  2961  0012E4  CFDE F004          	movff	postinc2,_x+3	;volatile
  2962                           
  2963                           ;main.c: 98: DoneReading(1);
  2964  0012E8  0E01               	movlw	1
  2965  0012EA  EC5D  F008         	call	_DoneReading
  2966  0012EE  F000               	nop		;# 
  2967  0012F0  F000               	nop		;# 
  2968                           
  2969                           ;main.c: 104: vTaskDelete();
  2970  0012F2  EC93  F00A         	call	_vTaskDelete	;wreg free
  2971  0012F6  0012               	return		;funcret
  2972  0012F8                     __end_of_FunctionA:
  2973                           	opt stack 0
  2974                           tosu	equ	0xFFF
  2975                           tosh	equ	0xFFE
  2976                           tosl	equ	0xFFD
  2977                           stkptr	equ	0xFFC
  2978                           pclatu	equ	0xFFB
  2979                           pclath	equ	0xFFA
  2980                           tblptru	equ	0xFF8
  2981                           tblptrh	equ	0xFF7
  2982                           tblptrl	equ	0xFF6
  2983                           tablat	equ	0xFF5
  2984                           prodh	equ	0xFF4
  2985                           prodl	equ	0xFF3
  2986                           intcon	equ	0xFF2
  2987                           postinc0	equ	0xFEE
  2988                           fsr0h	equ	0xFEA
  2989                           fsr0l	equ	0xFE9
  2990                           wreg	equ	0xFE8
  2991                           indf1	equ	0xFE7
  2992                           postdec1	equ	0xFE5
  2993                           fsr1h	equ	0xFE2
  2994                           fsr1l	equ	0xFE1
  2995                           bsr	equ	0xFE0
  2996                           indf2	equ	0xFDF
  2997                           postinc2	equ	0xFDE
  2998                           postdec2	equ	0xFDD
  2999                           fsr2h	equ	0xFDA
  3000                           fsr2l	equ	0xFD9
  3001                           status	equ	0xFD8
  3002                           
  3003 ;; *************** function _xTaskCreate *****************
  3004 ;; Defined at:
  3005 ;;		line 262 in file "Structure.c"
  3006 ;; Parameters:    Size  Location     Type
  3007 ;;  pvTaskCode      4    1[COMRAM] unsigned long 
  3008 ;;  Id              1    5[COMRAM] unsigned char 
  3009 ;;  Prior           1    6[COMRAM] unsigned char 
  3010 ;; Auto vars:     Size  Location     Type
  3011 ;;		None
  3012 ;; Return value:  Size  Location     Type
  3013 ;;		None               void
  3014 ;; Registers used:
  3015 ;;		wreg, fsr2l, fsr2h, status,2, status,0, prodl, prodh, cstack
  3016 ;; Tracked objects:
  3017 ;;		On entry : 0/0
  3018 ;;		On exit  : 0/0
  3019 ;;		Unchanged: 0/0
  3020 ;; Data sizes:     COMRAM   BANK0   BANK1   BANK2   BANK3   BANK4   BANK5   BANK6   BANK7
  3021 ;;      Params:         6       0       0       0       0       0       0       0       0
  3022 ;;      Locals:         0       0       0       0       0       0       0       0       0
  3023 ;;      Temps:          0       0       0       0       0       0       0       0       0
  3024 ;;      Totals:         6       0       0       0       0       0       0       0       0
  3025 ;;Total ram usage:        6 bytes
  3026 ;; Hardware stack levels used:    1
  3027 ;; Hardware stack levels required when called:    3
  3028 ;; This function calls:
  3029 ;;		_OSRun
  3030 ;; This function is called by:
  3031 ;;		_FunctionD
  3032 ;;		_FunctionA
  3033 ;;		_PWM_activator
  3034 ;; This function uses a non-reentrant model
  3035 ;;
  3036                           
  3037                           	psect	text19
  3038  000920                     __ptext19:
  3039                           	opt stack 0
  3040  000920                     _xTaskCreate:
  3041                           	opt stack 24
  3042                           
  3043                           ;Structure.c: 263: GIE = 0;
  3044                           
  3045                           ;incstack = 0
  3046  000920  9EF2               	bcf	intcon,7,c	;volatile
  3047                           
  3048                           ;Structure.c: 265: TaskArray[actualPosition].currentAdd3=TOSU;
  3049  000922  5038               	movf	_actualPosition,w,c
  3050  000924  0D15               	mullw	21
  3051  000926  0E08               	movlw	8
  3052  000928  26F3               	addwf	prodl,f,c
  3053  00092A  0E00               	movlw	0
  3054  00092C  22F4               	addwfc	prodh,f,c
  3055  00092E  0E00               	movlw	low _TaskArray
  3056  000930  24F3               	addwf	prodl,w,c
  3057  000932  6ED9               	movwf	fsr2l,c
  3058  000934  0E01               	movlw	high _TaskArray
  3059  000936  20F4               	addwfc	prodh,w,c
  3060  000938  6EDA               	movwf	fsr2h,c
  3061  00093A  CFFF FFDF          	movff	tosu,indf2	;volatile
  3062                           
  3063                           ;Structure.c: 266: TaskArray[actualPosition].currentAdd2=TOSH;
  3064  00093E  5038               	movf	_actualPosition,w,c
  3065  000940  0D15               	mullw	21
  3066  000942  0E07               	movlw	7
  3067  000944  26F3               	addwf	prodl,f,c
  3068  000946  0E00               	movlw	0
  3069  000948  22F4               	addwfc	prodh,f,c
  3070  00094A  0E00               	movlw	low _TaskArray
  3071  00094C  24F3               	addwf	prodl,w,c
  3072  00094E  6ED9               	movwf	fsr2l,c
  3073  000950  0E01               	movlw	high _TaskArray
  3074  000952  20F4               	addwfc	prodh,w,c
  3075  000954  6EDA               	movwf	fsr2h,c
  3076  000956  CFFE FFDF          	movff	tosh,indf2	;volatile
  3077                           
  3078                           ;Structure.c: 267: TaskArray[actualPosition].currentAdd1=TOSL;
  3079  00095A  5038               	movf	_actualPosition,w,c
  3080  00095C  0D15               	mullw	21
  3081  00095E  0E06               	movlw	6
  3082  000960  26F3               	addwf	prodl,f,c
  3083  000962  0E00               	movlw	0
  3084  000964  22F4               	addwfc	prodh,f,c
  3085  000966  0E00               	movlw	low _TaskArray
  3086  000968  24F3               	addwf	prodl,w,c
  3087  00096A  6ED9               	movwf	fsr2l,c
  3088  00096C  0E01               	movlw	high _TaskArray
  3089  00096E  20F4               	addwfc	prodh,w,c
  3090  000970  6EDA               	movwf	fsr2h,c
  3091  000972  CFFD FFDF          	movff	tosl,indf2	;volatile
  3092                           
  3093                           ;Structure.c: 269: taskPosition=Id;
  3094  000976  C020  F01A         	movff	xTaskCreate@Id,_taskPosition
  3095                           
  3096                           ;Structure.c: 270: TaskArray[taskPosition].Id=Id;
  3097  00097A  501A               	movf	_taskPosition,w,c
  3098  00097C  0D15               	mullw	21
  3099  00097E  0E04               	movlw	4
  3100  000980  26F3               	addwf	prodl,f,c
  3101  000982  0E00               	movlw	0
  3102  000984  22F4               	addwfc	prodh,f,c
  3103  000986  0E00               	movlw	low _TaskArray
  3104  000988  24F3               	addwf	prodl,w,c
  3105  00098A  6ED9               	movwf	fsr2l,c
  3106  00098C  0E01               	movlw	high _TaskArray
  3107  00098E  20F4               	addwfc	prodh,w,c
  3108  000990  6EDA               	movwf	fsr2h,c
  3109  000992  C020  FFDF         	movff	xTaskCreate@Id,indf2
  3110                           
  3111                           ;Structure.c: 271: TaskArray[taskPosition].state=2;
  3112  000996  501A               	movf	_taskPosition,w,c
  3113  000998  0D15               	mullw	21
  3114  00099A  0E03               	movlw	3
  3115  00099C  26F3               	addwf	prodl,f,c
  3116  00099E  0E00               	movlw	0
  3117  0009A0  22F4               	addwfc	prodh,f,c
  3118  0009A2  0E00               	movlw	low _TaskArray
  3119  0009A4  24F3               	addwf	prodl,w,c
  3120  0009A6  6ED9               	movwf	fsr2l,c
  3121  0009A8  0E01               	movlw	high _TaskArray
  3122  0009AA  20F4               	addwfc	prodh,w,c
  3123  0009AC  6EDA               	movwf	fsr2h,c
  3124  0009AE  0E02               	movlw	2
  3125  0009B0  6EDF               	movwf	indf2,c
  3126                           
  3127                           ;Structure.c: 272: TaskArray[taskPosition].Add3=(pvTaskCode & 0x00ff0000) >> 16;
  3128  0009B2  501A               	movf	_taskPosition,w,c
  3129  0009B4  0D15               	mullw	21
  3130  0009B6  0E02               	movlw	2
  3131  0009B8  26F3               	addwf	prodl,f,c
  3132  0009BA  0E00               	movlw	0
  3133  0009BC  22F4               	addwfc	prodh,f,c
  3134  0009BE  0E00               	movlw	low _TaskArray
  3135  0009C0  24F3               	addwf	prodl,w,c
  3136  0009C2  6ED9               	movwf	fsr2l,c
  3137  0009C4  0E01               	movlw	high _TaskArray
  3138  0009C6  20F4               	addwfc	prodh,w,c
  3139  0009C8  6EDA               	movwf	fsr2h,c
  3140  0009CA  C01E  FFDF         	movff	xTaskCreate@pvTaskCode+2,indf2
  3141                           
  3142                           ;Structure.c: 273: TaskArray[taskPosition].Add2=(pvTaskCode & 0x0000ff00) >> 8;
  3143  0009CE  501A               	movf	_taskPosition,w,c
  3144  0009D0  0D15               	mullw	21
  3145  0009D2  0E01               	movlw	1
  3146  0009D4  26F3               	addwf	prodl,f,c
  3147  0009D6  0E00               	movlw	0
  3148  0009D8  22F4               	addwfc	prodh,f,c
  3149  0009DA  0E00               	movlw	low _TaskArray
  3150  0009DC  24F3               	addwf	prodl,w,c
  3151  0009DE  6ED9               	movwf	fsr2l,c
  3152  0009E0  0E01               	movlw	high _TaskArray
  3153  0009E2  20F4               	addwfc	prodh,w,c
  3154  0009E4  6EDA               	movwf	fsr2h,c
  3155  0009E6  C01D  FFDF         	movff	xTaskCreate@pvTaskCode+1,indf2
  3156                           
  3157                           ;Structure.c: 274: TaskArray[taskPosition].Add1=(pvTaskCode & 0x000000ff);
  3158  0009EA  501A               	movf	_taskPosition,w,c
  3159  0009EC  0D15               	mullw	21
  3160  0009EE  0E00               	movlw	low _TaskArray
  3161  0009F0  24F3               	addwf	prodl,w,c
  3162  0009F2  6ED9               	movwf	fsr2l,c
  3163  0009F4  0E01               	movlw	high _TaskArray
  3164  0009F6  20F4               	addwfc	prodh,w,c
  3165  0009F8  6EDA               	movwf	fsr2h,c
  3166  0009FA  C01C  FFDF         	movff	xTaskCreate@pvTaskCode,indf2
  3167                           
  3168                           ;Structure.c: 275: TaskArray[taskPosition].currentAdd3=(pvTaskCode & 0x00ff0000) >> 16;
  3169  0009FE  501A               	movf	_taskPosition,w,c
  3170  000A00  0D15               	mullw	21
  3171  000A02  0E08               	movlw	8
  3172  000A04  26F3               	addwf	prodl,f,c
  3173  000A06  0E00               	movlw	0
  3174  000A08  22F4               	addwfc	prodh,f,c
  3175  000A0A  0E00               	movlw	low _TaskArray
  3176  000A0C  24F3               	addwf	prodl,w,c
  3177  000A0E  6ED9               	movwf	fsr2l,c
  3178  000A10  0E01               	movlw	high _TaskArray
  3179  000A12  20F4               	addwfc	prodh,w,c
  3180  000A14  6EDA               	movwf	fsr2h,c
  3181  000A16  C01E  FFDF         	movff	xTaskCreate@pvTaskCode+2,indf2
  3182                           
  3183                           ;Structure.c: 276: TaskArray[taskPosition].currentAdd2=(pvTaskCode & 0x0000ff00) >> 8;
  3184  000A1A  501A               	movf	_taskPosition,w,c
  3185  000A1C  0D15               	mullw	21
  3186  000A1E  0E07               	movlw	7
  3187  000A20  26F3               	addwf	prodl,f,c
  3188  000A22  0E00               	movlw	0
  3189  000A24  22F4               	addwfc	prodh,f,c
  3190  000A26  0E00               	movlw	low _TaskArray
  3191  000A28  24F3               	addwf	prodl,w,c
  3192  000A2A  6ED9               	movwf	fsr2l,c
  3193  000A2C  0E01               	movlw	high _TaskArray
  3194  000A2E  20F4               	addwfc	prodh,w,c
  3195  000A30  6EDA               	movwf	fsr2h,c
  3196  000A32  C01D  FFDF         	movff	xTaskCreate@pvTaskCode+1,indf2
  3197                           
  3198                           ;Structure.c: 277: TaskArray[taskPosition].currentAdd1=(pvTaskCode & 0x000000ff);
  3199  000A36  501A               	movf	_taskPosition,w,c
  3200  000A38  0D15               	mullw	21
  3201  000A3A  0E06               	movlw	6
  3202  000A3C  26F3               	addwf	prodl,f,c
  3203  000A3E  0E00               	movlw	0
  3204  000A40  22F4               	addwfc	prodh,f,c
  3205  000A42  0E00               	movlw	low _TaskArray
  3206  000A44  24F3               	addwf	prodl,w,c
  3207  000A46  6ED9               	movwf	fsr2l,c
  3208  000A48  0E01               	movlw	high _TaskArray
  3209  000A4A  20F4               	addwfc	prodh,w,c
  3210  000A4C  6EDA               	movwf	fsr2h,c
  3211  000A4E  C01C  FFDF         	movff	xTaskCreate@pvTaskCode,indf2
  3212                           
  3213                           ;Structure.c: 278: TaskArray[taskPosition].Priority=Prior;
  3214  000A52  501A               	movf	_taskPosition,w,c
  3215  000A54  0D15               	mullw	21
  3216  000A56  0E05               	movlw	5
  3217  000A58  26F3               	addwf	prodl,f,c
  3218  000A5A  0E00               	movlw	0
  3219  000A5C  22F4               	addwfc	prodh,f,c
  3220  000A5E  0E00               	movlw	low _TaskArray
  3221  000A60  24F3               	addwf	prodl,w,c
  3222  000A62  6ED9               	movwf	fsr2l,c
  3223  000A64  0E01               	movlw	high _TaskArray
  3224  000A66  20F4               	addwfc	prodh,w,c
  3225  000A68  6EDA               	movwf	fsr2h,c
  3226  000A6A  C021  FFDF         	movff	xTaskCreate@Prior,indf2
  3227                           
  3228                           ;Structure.c: 282: STKPTR--;
  3229  000A6E  06FC               	decf	stkptr,f,c	;volatile
  3230                           
  3231                           ;Structure.c: 283: OSRun();
  3232  000A70  ECBA  F003         	call	_OSRun	;wreg free
  3233  000A74  0012               	return		;funcret
  3234  000A76                     __end_of_xTaskCreate:
  3235                           	opt stack 0
  3236                           tosu	equ	0xFFF
  3237                           tosh	equ	0xFFE
  3238                           tosl	equ	0xFFD
  3239                           stkptr	equ	0xFFC
  3240                           pclatu	equ	0xFFB
  3241                           pclath	equ	0xFFA
  3242                           tblptru	equ	0xFF8
  3243                           tblptrh	equ	0xFF7
  3244                           tblptrl	equ	0xFF6
  3245                           tablat	equ	0xFF5
  3246                           prodh	equ	0xFF4
  3247                           prodl	equ	0xFF3
  3248                           intcon	equ	0xFF2
  3249                           postinc0	equ	0xFEE
  3250                           fsr0h	equ	0xFEA
  3251                           fsr0l	equ	0xFE9
  3252                           wreg	equ	0xFE8
  3253                           indf1	equ	0xFE7
  3254                           postdec1	equ	0xFE5
  3255                           fsr1h	equ	0xFE2
  3256                           fsr1l	equ	0xFE1
  3257                           bsr	equ	0xFE0
  3258                           indf2	equ	0xFDF
  3259                           postinc2	equ	0xFDE
  3260                           postdec2	equ	0xFDD
  3261                           fsr2h	equ	0xFDA
  3262                           fsr2l	equ	0xFD9
  3263                           status	equ	0xFD8
  3264                           
  3265 ;; *************** function _vTaskDelete *****************
  3266 ;; Defined at:
  3267 ;;		line 318 in file "Structure.c"
  3268 ;; Parameters:    Size  Location     Type
  3269 ;;		None
  3270 ;; Auto vars:     Size  Location     Type
  3271 ;;		None
  3272 ;; Return value:  Size  Location     Type
  3273 ;;		None               void
  3274 ;; Registers used:
  3275 ;;		wreg, fsr2l, fsr2h, status,2, status,0, prodl, prodh, cstack
  3276 ;; Tracked objects:
  3277 ;;		On entry : 0/0
  3278 ;;		On exit  : 0/0
  3279 ;;		Unchanged: 0/0
  3280 ;; Data sizes:     COMRAM   BANK0   BANK1   BANK2   BANK3   BANK4   BANK5   BANK6   BANK7
  3281 ;;      Params:         0       0       0       0       0       0       0       0       0
  3282 ;;      Locals:         0       0       0       0       0       0       0       0       0
  3283 ;;      Temps:          0       0       0       0       0       0       0       0       0
  3284 ;;      Totals:         0       0       0       0       0       0       0       0       0
  3285 ;;Total ram usage:        0 bytes
  3286 ;; Hardware stack levels used:    1
  3287 ;; Hardware stack levels required when called:    3
  3288 ;; This function calls:
  3289 ;;		_OSRun
  3290 ;; This function is called by:
  3291 ;;		_FunctionE
  3292 ;;		_FunctionD
  3293 ;;		_FunctionC
  3294 ;;		_FunctionB
  3295 ;;		_FunctionA
  3296 ;;		_PWM1
  3297 ;;		_PWM2
  3298 ;;		_PWM3
  3299 ;;		_PWM4
  3300 ;;		_PWM5
  3301 ;;		_PWM6
  3302 ;;		_PWM_activator
  3303 ;; This function uses a non-reentrant model
  3304 ;;
  3305                           
  3306                           	psect	text20
  3307  001526                     __ptext20:
  3308                           	opt stack 0
  3309  001526                     _vTaskDelete:
  3310                           	opt stack 24
  3311                           
  3312                           ;Structure.c: 319: GIE = 0;
  3313                           
  3314                           ;incstack = 0
  3315  001526  9EF2               	bcf	intcon,7,c	;volatile
  3316                           
  3317                           ;Structure.c: 320: TaskArray[actualPosition].state=0;
  3318  001528  5038               	movf	_actualPosition,w,c
  3319  00152A  0D15               	mullw	21
  3320  00152C  0E03               	movlw	3
  3321  00152E  26F3               	addwf	prodl,f,c
  3322  001530  0E00               	movlw	0
  3323  001532  22F4               	addwfc	prodh,f,c
  3324  001534  0E00               	movlw	low _TaskArray
  3325  001536  24F3               	addwf	prodl,w,c
  3326  001538  6ED9               	movwf	fsr2l,c
  3327  00153A  0E01               	movlw	high _TaskArray
  3328  00153C  20F4               	addwfc	prodh,w,c
  3329  00153E  6EDA               	movwf	fsr2h,c
  3330  001540  0E00               	movlw	0
  3331  001542  6EDF               	movwf	indf2,c
  3332                           
  3333                           ;Structure.c: 323: STKPTR--;
  3334  001544  06FC               	decf	stkptr,f,c	;volatile
  3335                           
  3336                           ;Structure.c: 324: OSRun();
  3337  001546  ECBA  F003         	call	_OSRun	;wreg free
  3338  00154A  0012               	return		;funcret
  3339  00154C                     __end_of_vTaskDelete:
  3340                           	opt stack 0
  3341                           tosu	equ	0xFFF
  3342                           tosh	equ	0xFFE
  3343                           tosl	equ	0xFFD
  3344                           stkptr	equ	0xFFC
  3345                           pclatu	equ	0xFFB
  3346                           pclath	equ	0xFFA
  3347                           tblptru	equ	0xFF8
  3348                           tblptrh	equ	0xFF7
  3349                           tblptrl	equ	0xFF6
  3350                           tablat	equ	0xFF5
  3351                           prodh	equ	0xFF4
  3352                           prodl	equ	0xFF3
  3353                           intcon	equ	0xFF2
  3354                           postinc0	equ	0xFEE
  3355                           fsr0h	equ	0xFEA
  3356                           fsr0l	equ	0xFE9
  3357                           wreg	equ	0xFE8
  3358                           indf1	equ	0xFE7
  3359                           postdec1	equ	0xFE5
  3360                           fsr1h	equ	0xFE2
  3361                           fsr1l	equ	0xFE1
  3362                           bsr	equ	0xFE0
  3363                           indf2	equ	0xFDF
  3364                           postinc2	equ	0xFDE
  3365                           postdec2	equ	0xFDD
  3366                           fsr2h	equ	0xFDA
  3367                           fsr2l	equ	0xFD9
  3368                           status	equ	0xFD8
  3369                           
  3370 ;; *************** function _mailBox_init_conection *****************
  3371 ;; Defined at:
  3372 ;;		line 75 in file "Structure.c"
  3373 ;; Parameters:    Size  Location     Type
  3374 ;;  reader          1    wreg     unsigned char 
  3375 ;;  writer          1    0[COMRAM] unsigned char 
  3376 ;; Auto vars:     Size  Location     Type
  3377 ;;  reader          1    1[COMRAM] unsigned char 
  3378 ;; Return value:  Size  Location     Type
  3379 ;;		None               void
  3380 ;; Registers used:
  3381 ;;		wreg, fsr2l, fsr2h, status,2, status,0, prodl, prodh
  3382 ;; Tracked objects:
  3383 ;;		On entry : 0/0
  3384 ;;		On exit  : 0/0
  3385 ;;		Unchanged: 0/0
  3386 ;; Data sizes:     COMRAM   BANK0   BANK1   BANK2   BANK3   BANK4   BANK5   BANK6   BANK7
  3387 ;;      Params:         1       0       0       0       0       0       0       0       0
  3388 ;;      Locals:         1       0       0       0       0       0       0       0       0
  3389 ;;      Temps:          0       0       0       0       0       0       0       0       0
  3390 ;;      Totals:         2       0       0       0       0       0       0       0       0
  3391 ;;Total ram usage:        2 bytes
  3392 ;; Hardware stack levels used:    1
  3393 ;; Hardware stack levels required when called:    2
  3394 ;; This function calls:
  3395 ;;		Nothing
  3396 ;; This function is called by:
  3397 ;;		_FunctionA
  3398 ;; This function uses a non-reentrant model
  3399 ;;
  3400                           
  3401                           	psect	text21
  3402  000C64                     __ptext21:
  3403                           	opt stack 0
  3404  000C64                     _mailBox_init_conection:
  3405                           	opt stack 25
  3406                           
  3407                           ;incstack = 0
  3408                           ;mailBox_init_conection@reader stored from wreg
  3409  000C64  6E1C               	movwf	mailBox_init_conection@reader,c
  3410                           
  3411                           ;Structure.c: 76: GIE = 0;
  3412  000C66  9EF2               	bcf	intcon,7,c	;volatile
  3413                           
  3414                           ;Structure.c: 77: index_mic=10;
  3415  000C68  0E0A               	movlw	10
  3416  000C6A  6E14               	movwf	_index_mic,c
  3417                           
  3418                           ;Structure.c: 78: for(i_mic=0;i_mic<11;i_mic++){
  3419  000C6C  0E00               	movlw	0
  3420  000C6E  6E0E               	movwf	_i_mic,c
  3421  000C70                     i1l1505:
  3422  000C70  0E0A               	movlw	10
  3423  000C72  640E               	cpfsgt	_i_mic,c
  3424  000C74  D001               	goto	i1l1509
  3425  000C76  D024               	goto	i1l1521
  3426  000C78                     i1l1509:
  3427                           
  3428                           ;Structure.c: 79: if(MailBoxArray[i_mic].Available==0 && MailBoxArray[i_mic].Connected==
      +                          0){
  3429  000C78  500E               	movf	_i_mic,w,c
  3430  000C7A  0D08               	mullw	8
  3431  000C7C  0E02               	movlw	2
  3432  000C7E  26F3               	addwf	prodl,f,c
  3433  000C80  0E00               	movlw	0
  3434  000C82  22F4               	addwfc	prodh,f,c
  3435  000C84  0E60               	movlw	low _MailBoxArray
  3436  000C86  24F3               	addwf	prodl,w,c
  3437  000C88  6ED9               	movwf	fsr2l,c
  3438  000C8A  0E00               	movlw	high _MailBoxArray
  3439  000C8C  20F4               	addwfc	prodh,w,c
  3440  000C8E  6EDA               	movwf	fsr2h,c
  3441  000C90  50DF               	movf	indf2,w,c
  3442  000C92  A4D8               	btfss	status,2,c
  3443  000C94  D013               	goto	i1l1517
  3444  000C96  500E               	movf	_i_mic,w,c
  3445  000C98  0D08               	mullw	8
  3446  000C9A  0E06               	movlw	6
  3447  000C9C  26F3               	addwf	prodl,f,c
  3448  000C9E  0E00               	movlw	0
  3449  000CA0  22F4               	addwfc	prodh,f,c
  3450  000CA2  0E60               	movlw	low _MailBoxArray
  3451  000CA4  24F3               	addwf	prodl,w,c
  3452  000CA6  6ED9               	movwf	fsr2l,c
  3453  000CA8  0E00               	movlw	high _MailBoxArray
  3454  000CAA  20F4               	addwfc	prodh,w,c
  3455  000CAC  6EDA               	movwf	fsr2h,c
  3456  000CAE  50DF               	movf	indf2,w,c
  3457  000CB0  A4D8               	btfss	status,2,c
  3458  000CB2  D004               	goto	i1l1517
  3459                           
  3460                           ;Structure.c: 80: index_mic=i_mic;
  3461  000CB4  C00E  F014         	movff	_i_mic,_index_mic
  3462                           
  3463                           ;Structure.c: 81: i_mic=100;
  3464  000CB8  0E64               	movlw	100
  3465  000CBA  6E0E               	movwf	_i_mic,c
  3466  000CBC                     i1l1517:
  3467  000CBC  2A0E               	incf	_i_mic,f,c
  3468  000CBE  D7D8               	goto	i1l1505
  3469  000CC0                     i1l1521:
  3470                           
  3471                           ;Structure.c: 82: }
  3472                           ;Structure.c: 83: }
  3473                           ;Structure.c: 84: TaskArray[actualPosition].MessageReader=reader;
  3474  000CC0  5038               	movf	_actualPosition,w,c
  3475  000CC2  0D15               	mullw	21
  3476  000CC4  0E11               	movlw	17
  3477  000CC6  26F3               	addwf	prodl,f,c
  3478  000CC8  0E00               	movlw	0
  3479  000CCA  22F4               	addwfc	prodh,f,c
  3480  000CCC  0E00               	movlw	low _TaskArray
  3481  000CCE  24F3               	addwf	prodl,w,c
  3482  000CD0  6ED9               	movwf	fsr2l,c
  3483  000CD2  0E01               	movlw	high _TaskArray
  3484  000CD4  20F4               	addwfc	prodh,w,c
  3485  000CD6  6EDA               	movwf	fsr2h,c
  3486  000CD8  C01C  FFDF         	movff	mailBox_init_conection@reader,indf2
  3487                           
  3488                           ;Structure.c: 85: MailBoxArray[index_mic].Reader=reader;
  3489  000CDC  5014               	movf	_index_mic,w,c
  3490  000CDE  0D08               	mullw	8
  3491  000CE0  0E60               	movlw	low _MailBoxArray
  3492  000CE2  24F3               	addwf	prodl,w,c
  3493  000CE4  6ED9               	movwf	fsr2l,c
  3494  000CE6  0E00               	movlw	high _MailBoxArray
  3495  000CE8  20F4               	addwfc	prodh,w,c
  3496  000CEA  6EDA               	movwf	fsr2h,c
  3497  000CEC  C01C  FFDF         	movff	mailBox_init_conection@reader,indf2
  3498                           
  3499                           ;Structure.c: 86: MailBoxArray[index_mic].Writer=writer;
  3500  000CF0  5014               	movf	_index_mic,w,c
  3501  000CF2  0D08               	mullw	8
  3502  000CF4  0E01               	movlw	1
  3503  000CF6  26F3               	addwf	prodl,f,c
  3504  000CF8  0E00               	movlw	0
  3505  000CFA  22F4               	addwfc	prodh,f,c
  3506  000CFC  0E60               	movlw	low _MailBoxArray
  3507  000CFE  24F3               	addwf	prodl,w,c
  3508  000D00  6ED9               	movwf	fsr2l,c
  3509  000D02  0E00               	movlw	high _MailBoxArray
  3510  000D04  20F4               	addwfc	prodh,w,c
  3511  000D06  6EDA               	movwf	fsr2h,c
  3512  000D08  C01B  FFDF         	movff	mailBox_init_conection@writer,indf2
  3513                           
  3514                           ;Structure.c: 87: MailBoxArray[index_mic].Connected=1;
  3515  000D0C  5014               	movf	_index_mic,w,c
  3516  000D0E  0D08               	mullw	8
  3517  000D10  0E06               	movlw	6
  3518  000D12  26F3               	addwf	prodl,f,c
  3519  000D14  0E00               	movlw	0
  3520  000D16  22F4               	addwfc	prodh,f,c
  3521  000D18  0E60               	movlw	low _MailBoxArray
  3522  000D1A  24F3               	addwf	prodl,w,c
  3523  000D1C  6ED9               	movwf	fsr2l,c
  3524  000D1E  0E00               	movlw	high _MailBoxArray
  3525  000D20  20F4               	addwfc	prodh,w,c
  3526  000D22  6EDA               	movwf	fsr2h,c
  3527  000D24  0E01               	movlw	1
  3528  000D26  6EDF               	movwf	indf2,c
  3529  000D28  0012               	return		;funcret
  3530  000D2A                     __end_of_mailBox_init_conection:
  3531                           	opt stack 0
  3532                           tosu	equ	0xFFF
  3533                           tosh	equ	0xFFE
  3534                           tosl	equ	0xFFD
  3535                           stkptr	equ	0xFFC
  3536                           pclatu	equ	0xFFB
  3537                           pclath	equ	0xFFA
  3538                           tblptru	equ	0xFF8
  3539                           tblptrh	equ	0xFF7
  3540                           tblptrl	equ	0xFF6
  3541                           tablat	equ	0xFF5
  3542                           prodh	equ	0xFF4
  3543                           prodl	equ	0xFF3
  3544                           intcon	equ	0xFF2
  3545                           postinc0	equ	0xFEE
  3546                           fsr0h	equ	0xFEA
  3547                           fsr0l	equ	0xFE9
  3548                           wreg	equ	0xFE8
  3549                           indf1	equ	0xFE7
  3550                           postdec1	equ	0xFE5
  3551                           fsr1h	equ	0xFE2
  3552                           fsr1l	equ	0xFE1
  3553                           bsr	equ	0xFE0
  3554                           indf2	equ	0xFDF
  3555                           postinc2	equ	0xFDE
  3556                           postdec2	equ	0xFDD
  3557                           fsr2h	equ	0xFDA
  3558                           fsr2l	equ	0xFD9
  3559                           status	equ	0xFD8
  3560                           
  3561 ;; *************** function _WritingMailBox *****************
  3562 ;; Defined at:
  3563 ;;		line 92 in file "Structure.c"
  3564 ;; Parameters:    Size  Location     Type
  3565 ;;  data            1    wreg     unsigned char 
  3566 ;;  reader          1    1[COMRAM] unsigned char 
  3567 ;; Auto vars:     Size  Location     Type
  3568 ;;  data            1    5[COMRAM] unsigned char 
  3569 ;; Return value:  Size  Location     Type
  3570 ;;		None               void
  3571 ;; Registers used:
  3572 ;;		wreg, fsr1l, fsr1h, fsr2l, fsr2h, status,2, status,0, prodl, prodh, cstack
  3573 ;; Tracked objects:
  3574 ;;		On entry : 0/0
  3575 ;;		On exit  : 0/0
  3576 ;;		Unchanged: 0/0
  3577 ;; Data sizes:     COMRAM   BANK0   BANK1   BANK2   BANK3   BANK4   BANK5   BANK6   BANK7
  3578 ;;      Params:         1       0       0       0       0       0       0       0       0
  3579 ;;      Locals:         1       0       0       0       0       0       0       0       0
  3580 ;;      Temps:          3       0       0       0       0       0       0       0       0
  3581 ;;      Totals:         5       0       0       0       0       0       0       0       0
  3582 ;;Total ram usage:        5 bytes
  3583 ;; Hardware stack levels used:    1
  3584 ;; Hardware stack levels required when called:    3
  3585 ;; This function calls:
  3586 ;;		_OSRun
  3587 ;;		_waitForBuffer
  3588 ;; This function is called by:
  3589 ;;		_FunctionA
  3590 ;; This function uses a non-reentrant model
  3591 ;;
  3592                           
  3593                           	psect	text22
  3594  000454                     __ptext22:
  3595                           	opt stack 0
  3596  000454                     _WritingMailBox:
  3597                           	opt stack 24
  3598                           
  3599                           ;incstack = 0
  3600                           ;WritingMailBox@data stored from wreg
  3601  000454  6E20               	movwf	WritingMailBox@data,c
  3602                           
  3603                           ;Structure.c: 93: GIE = 0;
  3604  000456  9EF2               	bcf	intcon,7,c	;volatile
  3605                           
  3606                           ;Structure.c: 94: index_wmb=10;
  3607  000458  0E0A               	movlw	10
  3608  00045A  6E16               	movwf	_index_wmb,c
  3609                           
  3610                           ;Structure.c: 95: for(i_wmb=0;i_wmb<11;i_wmb++){
  3611  00045C  0E00               	movlw	0
  3612  00045E  6E10               	movwf	_i_wmb,c
  3613  000460                     i1l1527:
  3614  000460  0E0A               	movlw	10
  3615  000462  6410               	cpfsgt	_i_wmb,c
  3616  000464  D001               	goto	i1l1531
  3617  000466  D079               	goto	i1l1553
  3618  000468                     i1l1531:
  3619                           
  3620                           ;Structure.c: 96: if(MailBoxArray[i_wmb].Writer==actualPosition &&
  3621                           ;Structure.c: 97: MailBoxArray[i_wmb].Reader==reader){
  3622  000468  5010               	movf	_i_wmb,w,c
  3623  00046A  0D08               	mullw	8
  3624  00046C  0E01               	movlw	1
  3625  00046E  26F3               	addwf	prodl,f,c
  3626  000470  0E00               	movlw	0
  3627  000472  22F4               	addwfc	prodh,f,c
  3628  000474  0E60               	movlw	low _MailBoxArray
  3629  000476  24F3               	addwf	prodl,w,c
  3630  000478  6ED9               	movwf	fsr2l,c
  3631  00047A  0E00               	movlw	high _MailBoxArray
  3632  00047C  20F4               	addwfc	prodh,w,c
  3633  00047E  6EDA               	movwf	fsr2h,c
  3634  000480  5038               	movf	_actualPosition,w,c
  3635  000482  18DE               	xorwf	postinc2,w,c
  3636  000484  A4D8               	btfss	status,2,c
  3637  000486  D067               	goto	i1l1549
  3638  000488  5010               	movf	_i_wmb,w,c
  3639  00048A  0D08               	mullw	8
  3640  00048C  0E60               	movlw	low _MailBoxArray
  3641  00048E  24F3               	addwf	prodl,w,c
  3642  000490  6ED9               	movwf	fsr2l,c
  3643  000492  0E00               	movlw	high _MailBoxArray
  3644  000494  20F4               	addwfc	prodh,w,c
  3645  000496  6EDA               	movwf	fsr2h,c
  3646  000498  501C               	movf	WritingMailBox@reader,w,c
  3647  00049A  18DE               	xorwf	postinc2,w,c
  3648  00049C  A4D8               	btfss	status,2,c
  3649  00049E  D05B               	goto	i1l1549
  3650                           
  3651                           ;Structure.c: 98: index_wmb=i_wmb;
  3652  0004A0  C010  F016         	movff	_i_wmb,_index_wmb
  3653                           
  3654                           ;Structure.c: 99: i_wmb=100;
  3655  0004A4  0E64               	movlw	100
  3656  0004A6  6E10               	movwf	_i_wmb,c
  3657                           
  3658                           ;Structure.c: 100: TaskArray[actualPosition].writeInterruptedIndex = index_wmb;
  3659  0004A8  5038               	movf	_actualPosition,w,c
  3660  0004AA  0D15               	mullw	21
  3661  0004AC  0E14               	movlw	20
  3662  0004AE  26F3               	addwf	prodl,f,c
  3663  0004B0  0E00               	movlw	0
  3664  0004B2  22F4               	addwfc	prodh,f,c
  3665  0004B4  0E00               	movlw	low _TaskArray
  3666  0004B6  24F3               	addwf	prodl,w,c
  3667  0004B8  6ED9               	movwf	fsr2l,c
  3668  0004BA  0E01               	movlw	high _TaskArray
  3669  0004BC  20F4               	addwfc	prodh,w,c
  3670  0004BE  6EDA               	movwf	fsr2h,c
  3671  0004C0  C016  FFDF         	movff	_index_wmb,indf2
  3672                           
  3673                           ;Structure.c: 101: TaskArray[actualPosition].MessageData=data;
  3674  0004C4  5038               	movf	_actualPosition,w,c
  3675  0004C6  0D15               	mullw	21
  3676  0004C8  0E12               	movlw	18
  3677  0004CA  26F3               	addwf	prodl,f,c
  3678  0004CC  0E00               	movlw	0
  3679  0004CE  22F4               	addwfc	prodh,f,c
  3680  0004D0  0E00               	movlw	low _TaskArray
  3681  0004D2  24F3               	addwf	prodl,w,c
  3682  0004D4  6ED9               	movwf	fsr2l,c
  3683  0004D6  0E01               	movlw	high _TaskArray
  3684  0004D8  20F4               	addwfc	prodh,w,c
  3685  0004DA  6EDA               	movwf	fsr2h,c
  3686  0004DC  C020  FFDF         	movff	WritingMailBox@data,indf2
  3687                           
  3688                           ;Structure.c: 102: if(MailBoxArray[index_wmb].Available==1){
  3689  0004E0  5016               	movf	_index_wmb,w,c
  3690  0004E2  0D08               	mullw	8
  3691  0004E4  0E02               	movlw	2
  3692  0004E6  26F3               	addwf	prodl,f,c
  3693  0004E8  0E00               	movlw	0
  3694  0004EA  22F4               	addwfc	prodh,f,c
  3695  0004EC  0E60               	movlw	low _MailBoxArray
  3696  0004EE  24F3               	addwf	prodl,w,c
  3697  0004F0  6ED9               	movwf	fsr2l,c
  3698  0004F2  0E00               	movlw	high _MailBoxArray
  3699  0004F4  20F4               	addwfc	prodh,w,c
  3700  0004F6  6EDA               	movwf	fsr2h,c
  3701  0004F8  04DE               	decf	postinc2,w,c
  3702  0004FA  A4D8               	btfss	status,2,c
  3703  0004FC  D02C               	goto	i1l1549
  3704                           
  3705                           ;Structure.c: 104: TaskArray[actualPosition].MessageReader=reader;
  3706  0004FE  5038               	movf	_actualPosition,w,c
  3707  000500  0D15               	mullw	21
  3708  000502  0E11               	movlw	17
  3709  000504  26F3               	addwf	prodl,f,c
  3710  000506  0E00               	movlw	0
  3711  000508  22F4               	addwfc	prodh,f,c
  3712  00050A  0E00               	movlw	low _TaskArray
  3713  00050C  24F3               	addwf	prodl,w,c
  3714  00050E  6ED9               	movwf	fsr2l,c
  3715  000510  0E01               	movlw	high _TaskArray
  3716  000512  20F4               	addwfc	prodh,w,c
  3717  000514  6EDA               	movwf	fsr2h,c
  3718  000516  C01C  FFDF         	movff	WritingMailBox@reader,indf2
  3719                           
  3720                           ;Structure.c: 105: TaskArray[actualPosition].MessageData=data;
  3721  00051A  5038               	movf	_actualPosition,w,c
  3722  00051C  0D15               	mullw	21
  3723  00051E  0E12               	movlw	18
  3724  000520  26F3               	addwf	prodl,f,c
  3725  000522  0E00               	movlw	0
  3726  000524  22F4               	addwfc	prodh,f,c
  3727  000526  0E00               	movlw	low _TaskArray
  3728  000528  24F3               	addwf	prodl,w,c
  3729  00052A  6ED9               	movwf	fsr2l,c
  3730  00052C  0E01               	movlw	high _TaskArray
  3731  00052E  20F4               	addwfc	prodh,w,c
  3732  000530  6EDA               	movwf	fsr2h,c
  3733  000532  C020  FFDF         	movff	WritingMailBox@data,indf2
  3734                           
  3735                           ;Structure.c: 106: TaskArray[actualPosition].WaitMessage = 1;
  3736  000536  5038               	movf	_actualPosition,w,c
  3737  000538  0D15               	mullw	21
  3738  00053A  0E0F               	movlw	15
  3739  00053C  26F3               	addwf	prodl,f,c
  3740  00053E  0E00               	movlw	0
  3741  000540  22F4               	addwfc	prodh,f,c
  3742  000542  0E00               	movlw	low _TaskArray
  3743  000544  24F3               	addwf	prodl,w,c
  3744  000546  6ED9               	movwf	fsr2l,c
  3745  000548  0E01               	movlw	high _TaskArray
  3746  00054A  20F4               	addwfc	prodh,w,c
  3747  00054C  6EDA               	movwf	fsr2h,c
  3748  00054E  0E01               	movlw	1
  3749  000550  6EDF               	movwf	indf2,c
  3750                           
  3751                           ;Structure.c: 108: waitForBuffer();
  3752  000552  EC07  F009         	call	_waitForBuffer	;wreg free
  3753  000556                     i1l1549:
  3754  000556  2A10               	incf	_i_wmb,f,c
  3755  000558  D783               	goto	i1l1527
  3756  00055A                     i1l1553:
  3757                           
  3758                           ;Structure.c: 109: }
  3759                           ;Structure.c: 110: }
  3760                           ;Structure.c: 111: }
  3761                           ;Structure.c: 114: MailBoxArray[ TaskArray[actualPosition].writeInterruptedIndex ].Data=
      +                           TaskArray[actualPosition].MessageData;
  3762  00055A  5038               	movf	_actualPosition,w,c
  3763  00055C  0D15               	mullw	21
  3764  00055E  0E12               	movlw	18
  3765  000560  26F3               	addwf	prodl,f,c
  3766  000562  0E00               	movlw	0
  3767  000564  22F4               	addwfc	prodh,f,c
  3768  000566  0E00               	movlw	low _TaskArray
  3769  000568  24F3               	addwf	prodl,w,c
  3770  00056A  6ED9               	movwf	fsr2l,c
  3771  00056C  0E01               	movlw	high _TaskArray
  3772  00056E  20F4               	addwfc	prodh,w,c
  3773  000570  6EDA               	movwf	fsr2h,c
  3774  000572  5038               	movf	_actualPosition,w,c
  3775  000574  0D15               	mullw	21
  3776  000576  0E14               	movlw	20
  3777  000578  26F3               	addwf	prodl,f,c
  3778  00057A  0E00               	movlw	0
  3779  00057C  22F4               	addwfc	prodh,f,c
  3780  00057E  0E00               	movlw	low _TaskArray
  3781  000580  24F3               	addwf	prodl,w,c
  3782  000582  6EE1               	movwf	fsr1l,c
  3783  000584  0E01               	movlw	high _TaskArray
  3784  000586  20F4               	addwfc	prodh,w,c
  3785  000588  6EE2               	movwf	fsr1h,c
  3786  00058A  50E7               	movf	indf1,w,c
  3787  00058C  6E1D               	movwf	??_WritingMailBox& (0+255),c
  3788  00058E  501D               	movf	??_WritingMailBox,w,c
  3789  000590  0D08               	mullw	8
  3790  000592  0E03               	movlw	3
  3791  000594  26F3               	addwf	prodl,f,c
  3792  000596  0E00               	movlw	0
  3793  000598  22F4               	addwfc	prodh,f,c
  3794  00059A  0E60               	movlw	low _MailBoxArray
  3795  00059C  24F3               	addwf	prodl,w,c
  3796  00059E  6EE1               	movwf	fsr1l,c
  3797  0005A0  0E00               	movlw	high _MailBoxArray
  3798  0005A2  20F4               	addwfc	prodh,w,c
  3799  0005A4  6EE2               	movwf	fsr1h,c
  3800  0005A6  CFDF FFE7          	movff	indf2,indf1
  3801                           
  3802                           ;Structure.c: 115: MailBoxArray[ TaskArray[actualPosition].writeInterruptedIndex ].Avail
      +                          able=1;
  3803  0005AA  5038               	movf	_actualPosition,w,c
  3804  0005AC  0D15               	mullw	21
  3805  0005AE  0E14               	movlw	20
  3806  0005B0  26F3               	addwf	prodl,f,c
  3807  0005B2  0E00               	movlw	0
  3808  0005B4  22F4               	addwfc	prodh,f,c
  3809  0005B6  0E00               	movlw	low _TaskArray
  3810  0005B8  24F3               	addwf	prodl,w,c
  3811  0005BA  6ED9               	movwf	fsr2l,c
  3812  0005BC  0E01               	movlw	high _TaskArray
  3813  0005BE  20F4               	addwfc	prodh,w,c
  3814  0005C0  6EDA               	movwf	fsr2h,c
  3815  0005C2  50DF               	movf	indf2,w,c
  3816  0005C4  6E1D               	movwf	??_WritingMailBox& (0+255),c
  3817  0005C6  501D               	movf	??_WritingMailBox,w,c
  3818  0005C8  0D08               	mullw	8
  3819  0005CA  0E02               	movlw	2
  3820  0005CC  26F3               	addwf	prodl,f,c
  3821  0005CE  0E00               	movlw	0
  3822  0005D0  22F4               	addwfc	prodh,f,c
  3823  0005D2  0E60               	movlw	low _MailBoxArray
  3824  0005D4  24F3               	addwf	prodl,w,c
  3825  0005D6  6ED9               	movwf	fsr2l,c
  3826  0005D8  0E00               	movlw	high _MailBoxArray
  3827  0005DA  20F4               	addwfc	prodh,w,c
  3828  0005DC  6EDA               	movwf	fsr2h,c
  3829  0005DE  0E01               	movlw	1
  3830  0005E0  6EDF               	movwf	indf2,c
  3831                           
  3832                           ;Structure.c: 116: if(TaskArray[ MailBoxArray[ TaskArray[actualPosition].writeInterrupte
      +                          dIndex ].Reader ].state == 1 && TaskArray[ MailBoxArray[ TaskArray[actualPosition].write
      +                          InterruptedIndex ].Reader].WaitMessage == 2){
  3833  0005E2  5038               	movf	_actualPosition,w,c
  3834  0005E4  0D15               	mullw	21
  3835  0005E6  0E14               	movlw	20
  3836  0005E8  26F3               	addwf	prodl,f,c
  3837  0005EA  0E00               	movlw	0
  3838  0005EC  22F4               	addwfc	prodh,f,c
  3839  0005EE  0E00               	movlw	low _TaskArray
  3840  0005F0  24F3               	addwf	prodl,w,c
  3841  0005F2  6ED9               	movwf	fsr2l,c
  3842  0005F4  0E01               	movlw	high _TaskArray
  3843  0005F6  20F4               	addwfc	prodh,w,c
  3844  0005F8  6EDA               	movwf	fsr2h,c
  3845  0005FA  50DF               	movf	indf2,w,c
  3846  0005FC  6E1D               	movwf	??_WritingMailBox& (0+255),c
  3847  0005FE  501D               	movf	??_WritingMailBox,w,c
  3848  000600  0D08               	mullw	8
  3849  000602  0E60               	movlw	low _MailBoxArray
  3850  000604  24F3               	addwf	prodl,w,c
  3851  000606  6ED9               	movwf	fsr2l,c
  3852  000608  0E00               	movlw	high _MailBoxArray
  3853  00060A  20F4               	addwfc	prodh,w,c
  3854  00060C  6EDA               	movwf	fsr2h,c
  3855  00060E  50DF               	movf	indf2,w,c
  3856  000610  6E1E               	movwf	(??_WritingMailBox+1)& (0+255),c
  3857  000612  501E               	movf	??_WritingMailBox+1,w,c
  3858  000614  0D15               	mullw	21
  3859  000616  0E03               	movlw	3
  3860  000618  26F3               	addwf	prodl,f,c
  3861  00061A  0E00               	movlw	0
  3862  00061C  22F4               	addwfc	prodh,f,c
  3863  00061E  0E00               	movlw	low _TaskArray
  3864  000620  24F3               	addwf	prodl,w,c
  3865  000622  6ED9               	movwf	fsr2l,c
  3866  000624  0E01               	movlw	high _TaskArray
  3867  000626  20F4               	addwfc	prodh,w,c
  3868  000628  6EDA               	movwf	fsr2h,c
  3869  00062A  04DE               	decf	postinc2,w,c
  3870  00062C  A4D8               	btfss	status,2,c
  3871  00062E  0012               	return	
  3872  000630  5038               	movf	_actualPosition,w,c
  3873  000632  0D15               	mullw	21
  3874  000634  0E14               	movlw	20
  3875  000636  26F3               	addwf	prodl,f,c
  3876  000638  0E00               	movlw	0
  3877  00063A  22F4               	addwfc	prodh,f,c
  3878  00063C  0E00               	movlw	low _TaskArray
  3879  00063E  24F3               	addwf	prodl,w,c
  3880  000640  6ED9               	movwf	fsr2l,c
  3881  000642  0E01               	movlw	high _TaskArray
  3882  000644  20F4               	addwfc	prodh,w,c
  3883  000646  6EDA               	movwf	fsr2h,c
  3884  000648  50DF               	movf	indf2,w,c
  3885  00064A  6E1D               	movwf	??_WritingMailBox& (0+255),c
  3886  00064C  501D               	movf	??_WritingMailBox,w,c
  3887  00064E  0D08               	mullw	8
  3888  000650  0E60               	movlw	low _MailBoxArray
  3889  000652  24F3               	addwf	prodl,w,c
  3890  000654  6ED9               	movwf	fsr2l,c
  3891  000656  0E00               	movlw	high _MailBoxArray
  3892  000658  20F4               	addwfc	prodh,w,c
  3893  00065A  6EDA               	movwf	fsr2h,c
  3894  00065C  50DF               	movf	indf2,w,c
  3895  00065E  6E1E               	movwf	(??_WritingMailBox+1)& (0+255),c
  3896  000660  501E               	movf	??_WritingMailBox+1,w,c
  3897  000662  0D15               	mullw	21
  3898  000664  0E0F               	movlw	15
  3899  000666  26F3               	addwf	prodl,f,c
  3900  000668  0E00               	movlw	0
  3901  00066A  22F4               	addwfc	prodh,f,c
  3902  00066C  0E00               	movlw	low _TaskArray
  3903  00066E  24F3               	addwf	prodl,w,c
  3904  000670  6ED9               	movwf	fsr2l,c
  3905  000672  0E01               	movlw	high _TaskArray
  3906  000674  20F4               	addwfc	prodh,w,c
  3907  000676  6EDA               	movwf	fsr2h,c
  3908  000678  0E02               	movlw	2
  3909  00067A  18DE               	xorwf	postinc2,w,c
  3910  00067C  A4D8               	btfss	status,2,c
  3911  00067E  0012               	return	
  3912                           
  3913                           ;Structure.c: 117: TaskArray[ MailBoxArray[ TaskArray[actualPosition].writeInterruptedIn
      +                          dex ].Reader ].state = 2;
  3914  000680  5038               	movf	_actualPosition,w,c
  3915  000682  0D15               	mullw	21
  3916  000684  0E14               	movlw	20
  3917  000686  26F3               	addwf	prodl,f,c
  3918  000688  0E00               	movlw	0
  3919  00068A  22F4               	addwfc	prodh,f,c
  3920  00068C  0E00               	movlw	low _TaskArray
  3921  00068E  24F3               	addwf	prodl,w,c
  3922  000690  6ED9               	movwf	fsr2l,c
  3923  000692  0E01               	movlw	high _TaskArray
  3924  000694  20F4               	addwfc	prodh,w,c
  3925  000696  6EDA               	movwf	fsr2h,c
  3926  000698  50DF               	movf	indf2,w,c
  3927  00069A  6E1D               	movwf	??_WritingMailBox& (0+255),c
  3928  00069C  501D               	movf	??_WritingMailBox,w,c
  3929  00069E  0D08               	mullw	8
  3930  0006A0  0E60               	movlw	low _MailBoxArray
  3931  0006A2  24F3               	addwf	prodl,w,c
  3932  0006A4  6ED9               	movwf	fsr2l,c
  3933  0006A6  0E00               	movlw	high _MailBoxArray
  3934  0006A8  20F4               	addwfc	prodh,w,c
  3935  0006AA  6EDA               	movwf	fsr2h,c
  3936  0006AC  50DF               	movf	indf2,w,c
  3937  0006AE  6E1E               	movwf	(??_WritingMailBox+1)& (0+255),c
  3938  0006B0  501E               	movf	??_WritingMailBox+1,w,c
  3939  0006B2  0D15               	mullw	21
  3940  0006B4  0E03               	movlw	3
  3941  0006B6  26F3               	addwf	prodl,f,c
  3942  0006B8  0E00               	movlw	0
  3943  0006BA  22F4               	addwfc	prodh,f,c
  3944  0006BC  0E00               	movlw	low _TaskArray
  3945  0006BE  24F3               	addwf	prodl,w,c
  3946  0006C0  6ED9               	movwf	fsr2l,c
  3947  0006C2  0E01               	movlw	high _TaskArray
  3948  0006C4  20F4               	addwfc	prodh,w,c
  3949  0006C6  6EDA               	movwf	fsr2h,c
  3950  0006C8  0E02               	movlw	2
  3951  0006CA  6EDF               	movwf	indf2,c
  3952                           
  3953                           ;Structure.c: 118: TaskArray[ MailBoxArray[ TaskArray[actualPosition].writeInterruptedIn
      +                          dex ].Reader].WaitMessage = 0;
  3954  0006CC  5038               	movf	_actualPosition,w,c
  3955  0006CE  0D15               	mullw	21
  3956  0006D0  0E14               	movlw	20
  3957  0006D2  26F3               	addwf	prodl,f,c
  3958  0006D4  0E00               	movlw	0
  3959  0006D6  22F4               	addwfc	prodh,f,c
  3960  0006D8  0E00               	movlw	low _TaskArray
  3961  0006DA  24F3               	addwf	prodl,w,c
  3962  0006DC  6ED9               	movwf	fsr2l,c
  3963  0006DE  0E01               	movlw	high _TaskArray
  3964  0006E0  20F4               	addwfc	prodh,w,c
  3965  0006E2  6EDA               	movwf	fsr2h,c
  3966  0006E4  50DF               	movf	indf2,w,c
  3967  0006E6  6E1D               	movwf	??_WritingMailBox& (0+255),c
  3968  0006E8  501D               	movf	??_WritingMailBox,w,c
  3969  0006EA  0D08               	mullw	8
  3970  0006EC  0E60               	movlw	low _MailBoxArray
  3971  0006EE  24F3               	addwf	prodl,w,c
  3972  0006F0  6ED9               	movwf	fsr2l,c
  3973  0006F2  0E00               	movlw	high _MailBoxArray
  3974  0006F4  20F4               	addwfc	prodh,w,c
  3975  0006F6  6EDA               	movwf	fsr2h,c
  3976  0006F8  50DF               	movf	indf2,w,c
  3977  0006FA  6E1E               	movwf	(??_WritingMailBox+1)& (0+255),c
  3978  0006FC  501E               	movf	??_WritingMailBox+1,w,c
  3979  0006FE  0D15               	mullw	21
  3980  000700  0E0F               	movlw	15
  3981  000702  26F3               	addwf	prodl,f,c
  3982  000704  0E00               	movlw	0
  3983  000706  22F4               	addwfc	prodh,f,c
  3984  000708  0E00               	movlw	low _TaskArray
  3985  00070A  24F3               	addwf	prodl,w,c
  3986  00070C  6ED9               	movwf	fsr2l,c
  3987  00070E  0E01               	movlw	high _TaskArray
  3988  000710  20F4               	addwfc	prodh,w,c
  3989  000712  6EDA               	movwf	fsr2h,c
  3990  000714  0E00               	movlw	0
  3991  000716  6EDF               	movwf	indf2,c
  3992                           
  3993                           ;Structure.c: 120: TaskArray[actualPosition].currentAdd3=TOSU;
  3994  000718  5038               	movf	_actualPosition,w,c
  3995  00071A  0D15               	mullw	21
  3996  00071C  0E08               	movlw	8
  3997  00071E  26F3               	addwf	prodl,f,c
  3998  000720  0E00               	movlw	0
  3999  000722  22F4               	addwfc	prodh,f,c
  4000  000724  0E00               	movlw	low _TaskArray
  4001  000726  24F3               	addwf	prodl,w,c
  4002  000728  6ED9               	movwf	fsr2l,c
  4003  00072A  0E01               	movlw	high _TaskArray
  4004  00072C  20F4               	addwfc	prodh,w,c
  4005  00072E  6EDA               	movwf	fsr2h,c
  4006  000730  CFFF FFDF          	movff	tosu,indf2	;volatile
  4007                           
  4008                           ;Structure.c: 121: TaskArray[actualPosition].currentAdd2=TOSH;
  4009  000734  5038               	movf	_actualPosition,w,c
  4010  000736  0D15               	mullw	21
  4011  000738  0E07               	movlw	7
  4012  00073A  26F3               	addwf	prodl,f,c
  4013  00073C  0E00               	movlw	0
  4014  00073E  22F4               	addwfc	prodh,f,c
  4015  000740  0E00               	movlw	low _TaskArray
  4016  000742  24F3               	addwf	prodl,w,c
  4017  000744  6ED9               	movwf	fsr2l,c
  4018  000746  0E01               	movlw	high _TaskArray
  4019  000748  20F4               	addwfc	prodh,w,c
  4020  00074A  6EDA               	movwf	fsr2h,c
  4021  00074C  CFFE FFDF          	movff	tosh,indf2	;volatile
  4022                           
  4023                           ;Structure.c: 122: TaskArray[actualPosition].currentAdd1=TOSL;
  4024  000750  5038               	movf	_actualPosition,w,c
  4025  000752  0D15               	mullw	21
  4026  000754  0E06               	movlw	6
  4027  000756  26F3               	addwf	prodl,f,c
  4028  000758  0E00               	movlw	0
  4029  00075A  22F4               	addwfc	prodh,f,c
  4030  00075C  0E00               	movlw	low _TaskArray
  4031  00075E  24F3               	addwf	prodl,w,c
  4032  000760  6ED9               	movwf	fsr2l,c
  4033  000762  0E01               	movlw	high _TaskArray
  4034  000764  20F4               	addwfc	prodh,w,c
  4035  000766  6EDA               	movwf	fsr2h,c
  4036  000768  CFFD FFDF          	movff	tosl,indf2	;volatile
  4037                           
  4038                           ;Structure.c: 123: STKPTR--;
  4039  00076C  06FC               	decf	stkptr,f,c	;volatile
  4040                           
  4041                           ;Structure.c: 124: OSRun();
  4042  00076E  ECBA  F003         	call	_OSRun	;wreg free
  4043  000772  0012               	return	
  4044  000774                     __end_of_WritingMailBox:
  4045                           	opt stack 0
  4046                           tosu	equ	0xFFF
  4047                           tosh	equ	0xFFE
  4048                           tosl	equ	0xFFD
  4049                           stkptr	equ	0xFFC
  4050                           pclatu	equ	0xFFB
  4051                           pclath	equ	0xFFA
  4052                           tblptru	equ	0xFF8
  4053                           tblptrh	equ	0xFF7
  4054                           tblptrl	equ	0xFF6
  4055                           tablat	equ	0xFF5
  4056                           prodh	equ	0xFF4
  4057                           prodl	equ	0xFF3
  4058                           intcon	equ	0xFF2
  4059                           postinc0	equ	0xFEE
  4060                           fsr0h	equ	0xFEA
  4061                           fsr0l	equ	0xFE9
  4062                           wreg	equ	0xFE8
  4063                           indf1	equ	0xFE7
  4064                           postdec1	equ	0xFE5
  4065                           fsr1h	equ	0xFE2
  4066                           fsr1l	equ	0xFE1
  4067                           bsr	equ	0xFE0
  4068                           indf2	equ	0xFDF
  4069                           postinc2	equ	0xFDE
  4070                           postdec2	equ	0xFDD
  4071                           fsr2h	equ	0xFDA
  4072                           fsr2l	equ	0xFD9
  4073                           status	equ	0xFD8
  4074                           
  4075 ;; *************** function _waitForBuffer *****************
  4076 ;; Defined at:
  4077 ;;		line 169 in file "Structure.c"
  4078 ;; Parameters:    Size  Location     Type
  4079 ;;		None
  4080 ;; Auto vars:     Size  Location     Type
  4081 ;;		None
  4082 ;; Return value:  Size  Location     Type
  4083 ;;		None               void
  4084 ;; Registers used:
  4085 ;;		wreg, fsr2l, fsr2h, status,2, status,0, prodl, prodh
  4086 ;; Tracked objects:
  4087 ;;		On entry : 0/0
  4088 ;;		On exit  : 0/0
  4089 ;;		Unchanged: 0/0
  4090 ;; Data sizes:     COMRAM   BANK0   BANK1   BANK2   BANK3   BANK4   BANK5   BANK6   BANK7
  4091 ;;      Params:         0       0       0       0       0       0       0       0       0
  4092 ;;      Locals:         0       0       0       0       0       0       0       0       0
  4093 ;;      Temps:          0       0       0       0       0       0       0       0       0
  4094 ;;      Totals:         0       0       0       0       0       0       0       0       0
  4095 ;;Total ram usage:        0 bytes
  4096 ;; Hardware stack levels used:    1
  4097 ;; Hardware stack levels required when called:    2
  4098 ;; This function calls:
  4099 ;;		Nothing
  4100 ;; This function is called by:
  4101 ;;		_WritingMailBox
  4102 ;;		_ReadingMailBox
  4103 ;; This function uses a non-reentrant model
  4104 ;;
  4105                           
  4106                           	psect	text23
  4107  00120E                     __ptext23:
  4108                           	opt stack 0
  4109  00120E                     _waitForBuffer:
  4110                           	opt stack 24
  4111                           
  4112                           ;Structure.c: 170: GIE = 0;
  4113                           
  4114                           ;incstack = 0
  4115  00120E  9EF2               	bcf	intcon,7,c	;volatile
  4116                           
  4117                           ;Structure.c: 171: TaskArray[actualPosition].state = 1;
  4118  001210  5038               	movf	_actualPosition,w,c
  4119  001212  0D15               	mullw	21
  4120  001214  0E03               	movlw	3
  4121  001216  26F3               	addwf	prodl,f,c
  4122  001218  0E00               	movlw	0
  4123  00121A  22F4               	addwfc	prodh,f,c
  4124  00121C  0E00               	movlw	low _TaskArray
  4125  00121E  24F3               	addwf	prodl,w,c
  4126  001220  6ED9               	movwf	fsr2l,c
  4127  001222  0E01               	movlw	high _TaskArray
  4128  001224  20F4               	addwfc	prodh,w,c
  4129  001226  6EDA               	movwf	fsr2h,c
  4130  001228  0E01               	movlw	1
  4131  00122A  6EDF               	movwf	indf2,c
  4132                           
  4133                           ;Structure.c: 173: TaskArray[actualPosition].currentAdd3 = TOSU;
  4134  00122C  5038               	movf	_actualPosition,w,c
  4135  00122E  0D15               	mullw	21
  4136  001230  0E08               	movlw	8
  4137  001232  26F3               	addwf	prodl,f,c
  4138  001234  0E00               	movlw	0
  4139  001236  22F4               	addwfc	prodh,f,c
  4140  001238  0E00               	movlw	low _TaskArray
  4141  00123A  24F3               	addwf	prodl,w,c
  4142  00123C  6ED9               	movwf	fsr2l,c
  4143  00123E  0E01               	movlw	high _TaskArray
  4144  001240  20F4               	addwfc	prodh,w,c
  4145  001242  6EDA               	movwf	fsr2h,c
  4146  001244  CFFF FFDF          	movff	tosu,indf2	;volatile
  4147                           
  4148                           ;Structure.c: 174: TaskArray[actualPosition].currentAdd2 = TOSH;
  4149  001248  5038               	movf	_actualPosition,w,c
  4150  00124A  0D15               	mullw	21
  4151  00124C  0E07               	movlw	7
  4152  00124E  26F3               	addwf	prodl,f,c
  4153  001250  0E00               	movlw	0
  4154  001252  22F4               	addwfc	prodh,f,c
  4155  001254  0E00               	movlw	low _TaskArray
  4156  001256  24F3               	addwf	prodl,w,c
  4157  001258  6ED9               	movwf	fsr2l,c
  4158  00125A  0E01               	movlw	high _TaskArray
  4159  00125C  20F4               	addwfc	prodh,w,c
  4160  00125E  6EDA               	movwf	fsr2h,c
  4161  001260  CFFE FFDF          	movff	tosh,indf2	;volatile
  4162                           
  4163                           ;Structure.c: 175: TaskArray[actualPosition].currentAdd1 = TOSL;
  4164  001264  5038               	movf	_actualPosition,w,c
  4165  001266  0D15               	mullw	21
  4166  001268  0E06               	movlw	6
  4167  00126A  26F3               	addwf	prodl,f,c
  4168  00126C  0E00               	movlw	0
  4169  00126E  22F4               	addwfc	prodh,f,c
  4170  001270  0E00               	movlw	low _TaskArray
  4171  001272  24F3               	addwf	prodl,w,c
  4172  001274  6ED9               	movwf	fsr2l,c
  4173  001276  0E01               	movlw	high _TaskArray
  4174  001278  20F4               	addwfc	prodh,w,c
  4175  00127A  6EDA               	movwf	fsr2h,c
  4176  00127C  CFFD FFDF          	movff	tosl,indf2	;volatile
  4177                           
  4178                           ;Structure.c: 176: STKPTR++;
  4179  001280  2AFC               	incf	stkptr,f,c	;volatile
  4180                           
  4181                           ;Structure.c: 177: TOS = &OSRun;
  4182  001282  0E74               	movlw	low _OSRun
  4183  001284  6EFD               	movwf	tosl,c	;volatile
  4184  001286  0E07               	movlw	high _OSRun
  4185  001288  6EFE               	movwf	tosh,c	;volatile
  4186  00128A  0E00               	movlw	low (_OSRun shr (0+16))
  4187  00128C  6EFF               	movwf	tosu,c	;volatile
  4188  00128E  0012               	return		;funcret
  4189  001290                     __end_of_waitForBuffer:
  4190                           	opt stack 0
  4191                           tosu	equ	0xFFF
  4192                           tosh	equ	0xFFE
  4193                           tosl	equ	0xFFD
  4194                           stkptr	equ	0xFFC
  4195                           pclatu	equ	0xFFB
  4196                           pclath	equ	0xFFA
  4197                           tblptru	equ	0xFF8
  4198                           tblptrh	equ	0xFF7
  4199                           tblptrl	equ	0xFF6
  4200                           tablat	equ	0xFF5
  4201                           prodh	equ	0xFF4
  4202                           prodl	equ	0xFF3
  4203                           intcon	equ	0xFF2
  4204                           postinc0	equ	0xFEE
  4205                           fsr0h	equ	0xFEA
  4206                           fsr0l	equ	0xFE9
  4207                           wreg	equ	0xFE8
  4208                           indf1	equ	0xFE7
  4209                           postdec1	equ	0xFE5
  4210                           fsr1h	equ	0xFE2
  4211                           fsr1l	equ	0xFE1
  4212                           bsr	equ	0xFE0
  4213                           indf2	equ	0xFDF
  4214                           postinc2	equ	0xFDE
  4215                           postdec2	equ	0xFDD
  4216                           fsr2h	equ	0xFDA
  4217                           fsr2l	equ	0xFD9
  4218                           status	equ	0xFD8
  4219                           
  4220 ;; *************** function _OSRun *****************
  4221 ;; Defined at:
  4222 ;;		line 359 in file "Structure.c"
  4223 ;; Parameters:    Size  Location     Type
  4224 ;;		None
  4225 ;; Auto vars:     Size  Location     Type
  4226 ;;		None
  4227 ;; Return value:  Size  Location     Type
  4228 ;;		None               void
  4229 ;; Registers used:
  4230 ;;		wreg, fsr2l, fsr2h, status,2, status,0, prodl, prodh
  4231 ;; Tracked objects:
  4232 ;;		On entry : 0/0
  4233 ;;		On exit  : 0/0
  4234 ;;		Unchanged: 0/0
  4235 ;; Data sizes:     COMRAM   BANK0   BANK1   BANK2   BANK3   BANK4   BANK5   BANK6   BANK7
  4236 ;;      Params:         0       0       0       0       0       0       0       0       0
  4237 ;;      Locals:         0       0       0       0       0       0       0       0       0
  4238 ;;      Temps:          1       0       0       0       0       0       0       0       0
  4239 ;;      Totals:         1       0       0       0       0       0       0       0       0
  4240 ;;Total ram usage:        1 bytes
  4241 ;; Hardware stack levels used:    1
  4242 ;; Hardware stack levels required when called:    2
  4243 ;; This function calls:
  4244 ;;		Nothing
  4245 ;; This function is called by:
  4246 ;;		_WritingMailBox
  4247 ;;		_ReadingMailBox
  4248 ;;		_waitForBuffer
  4249 ;;		_vTaskDelay
  4250 ;;		_reductionTime
  4251 ;;		_xTaskCreate
  4252 ;;		_xInterruptTaskCreate
  4253 ;;		_vTaskDelete
  4254 ;; This function uses a non-reentrant model
  4255 ;;
  4256                           
  4257                           	psect	text24
  4258  000774                     __ptext24:
  4259                           	opt stack 0
  4260  000774                     _OSRun:
  4261                           	opt stack 24
  4262                           
  4263                           ;Structure.c: 360: GIE = 0;
  4264                           
  4265                           ;incstack = 0
  4266  000774  9EF2               	bcf	intcon,7,c	;volatile
  4267                           
  4268                           ;Structure.c: 361: index = 10;
  4269  000776  0E0A               	movlw	10
  4270  000778  6E11               	movwf	_index,c
  4271                           
  4272                           ;Structure.c: 362: minPrior = 255;
  4273  00077A  683F               	setf	_minPrior,c
  4274                           
  4275                           ;Structure.c: 363: if(schedulerStatus == 1){
  4276  00077C  0443               	decf	_schedulerStatus,w,c
  4277  00077E  A4D8               	btfss	status,2,c
  4278  000780  0012               	return	
  4279                           
  4280                           ;Structure.c: 364: for(i=0;i<11 ; i++){
  4281  000782  0E00               	movlw	0
  4282  000784  6E0A               	movwf	_i,c
  4283  000786                     i1l1373:
  4284  000786  0E0A               	movlw	10
  4285  000788  640A               	cpfsgt	_i,c
  4286  00078A  D001               	goto	i1l1377
  4287  00078C  D052               	goto	i1l1391
  4288  00078E                     i1l1377:
  4289                           
  4290                           ;Structure.c: 365: if(TaskArray[i].Priority < minPrior && (TaskArray[i].state==2 || Task
      +                          Array[i].state==4 || TaskArray[i].state==3)){
  4291  00078E  500A               	movf	_i,w,c
  4292  000790  0D15               	mullw	21
  4293  000792  0E05               	movlw	5
  4294  000794  26F3               	addwf	prodl,f,c
  4295  000796  0E00               	movlw	0
  4296  000798  22F4               	addwfc	prodh,f,c
  4297  00079A  0E00               	movlw	low _TaskArray
  4298  00079C  24F3               	addwf	prodl,w,c
  4299  00079E  6ED9               	movwf	fsr2l,c
  4300  0007A0  0E01               	movlw	high _TaskArray
  4301  0007A2  20F4               	addwfc	prodh,w,c
  4302  0007A4  6EDA               	movwf	fsr2h,c
  4303  0007A6  503F               	movf	_minPrior,w,c
  4304  0007A8  5CDE               	subwf	postinc2,w,c
  4305  0007AA  B0D8               	btfsc	status,0,c
  4306  0007AC  D040               	goto	i1l1387
  4307  0007AE  500A               	movf	_i,w,c
  4308  0007B0  0D15               	mullw	21
  4309  0007B2  0E03               	movlw	3
  4310  0007B4  26F3               	addwf	prodl,f,c
  4311  0007B6  0E00               	movlw	0
  4312  0007B8  22F4               	addwfc	prodh,f,c
  4313  0007BA  0E00               	movlw	low _TaskArray
  4314  0007BC  24F3               	addwf	prodl,w,c
  4315  0007BE  6ED9               	movwf	fsr2l,c
  4316  0007C0  0E01               	movlw	high _TaskArray
  4317  0007C2  20F4               	addwfc	prodh,w,c
  4318  0007C4  6EDA               	movwf	fsr2h,c
  4319  0007C6  0E02               	movlw	2
  4320  0007C8  18DE               	xorwf	postinc2,w,c
  4321  0007CA  B4D8               	btfsc	status,2,c
  4322  0007CC  D020               	goto	i1l297
  4323  0007CE  500A               	movf	_i,w,c
  4324  0007D0  0D15               	mullw	21
  4325  0007D2  0E03               	movlw	3
  4326  0007D4  26F3               	addwf	prodl,f,c
  4327  0007D6  0E00               	movlw	0
  4328  0007D8  22F4               	addwfc	prodh,f,c
  4329  0007DA  0E00               	movlw	low _TaskArray
  4330  0007DC  24F3               	addwf	prodl,w,c
  4331  0007DE  6ED9               	movwf	fsr2l,c
  4332  0007E0  0E01               	movlw	high _TaskArray
  4333  0007E2  20F4               	addwfc	prodh,w,c
  4334  0007E4  6EDA               	movwf	fsr2h,c
  4335  0007E6  0E04               	movlw	4
  4336  0007E8  18DE               	xorwf	postinc2,w,c
  4337  0007EA  B4D8               	btfsc	status,2,c
  4338  0007EC  D010               	goto	i1l297
  4339  0007EE  500A               	movf	_i,w,c
  4340  0007F0  0D15               	mullw	21
  4341  0007F2  0E03               	movlw	3
  4342  0007F4  26F3               	addwf	prodl,f,c
  4343  0007F6  0E00               	movlw	0
  4344  0007F8  22F4               	addwfc	prodh,f,c
  4345  0007FA  0E00               	movlw	low _TaskArray
  4346  0007FC  24F3               	addwf	prodl,w,c
  4347  0007FE  6ED9               	movwf	fsr2l,c
  4348  000800  0E01               	movlw	high _TaskArray
  4349  000802  20F4               	addwfc	prodh,w,c
  4350  000804  6EDA               	movwf	fsr2h,c
  4351  000806  0E03               	movlw	3
  4352  000808  18DE               	xorwf	postinc2,w,c
  4353  00080A  A4D8               	btfss	status,2,c
  4354  00080C  D010               	goto	i1l1387
  4355  00080E                     i1l297:
  4356                           
  4357                           ;Structure.c: 367: index=i;
  4358  00080E  C00A  F011         	movff	_i,_index
  4359                           
  4360                           ;Structure.c: 368: minPrior = TaskArray[index].Priority;
  4361  000812  5011               	movf	_index,w,c
  4362  000814  0D15               	mullw	21
  4363  000816  0E05               	movlw	5
  4364  000818  26F3               	addwf	prodl,f,c
  4365  00081A  0E00               	movlw	0
  4366  00081C  22F4               	addwfc	prodh,f,c
  4367  00081E  0E00               	movlw	low _TaskArray
  4368  000820  24F3               	addwf	prodl,w,c
  4369  000822  6ED9               	movwf	fsr2l,c
  4370  000824  0E01               	movlw	high _TaskArray
  4371  000826  20F4               	addwfc	prodh,w,c
  4372  000828  6EDA               	movwf	fsr2h,c
  4373  00082A  50DF               	movf	indf2,w,c
  4374  00082C  6E3F               	movwf	_minPrior,c
  4375  00082E                     i1l1387:
  4376  00082E  2A0A               	incf	_i,f,c
  4377  000830  D7AA               	goto	i1l1373
  4378  000832                     i1l1391:
  4379                           
  4380                           ;Structure.c: 369: }
  4381                           ;Structure.c: 370: }
  4382                           ;Structure.c: 377: TaskArray[index].state=4;
  4383  000832  5011               	movf	_index,w,c
  4384  000834  0D15               	mullw	21
  4385  000836  0E03               	movlw	3
  4386  000838  26F3               	addwf	prodl,f,c
  4387  00083A  0E00               	movlw	0
  4388  00083C  22F4               	addwfc	prodh,f,c
  4389  00083E  0E00               	movlw	low _TaskArray
  4390  000840  24F3               	addwf	prodl,w,c
  4391  000842  6ED9               	movwf	fsr2l,c
  4392  000844  0E01               	movlw	high _TaskArray
  4393  000846  20F4               	addwfc	prodh,w,c
  4394  000848  6EDA               	movwf	fsr2h,c
  4395  00084A  0E04               	movlw	4
  4396  00084C  6EDF               	movwf	indf2,c
  4397                           
  4398                           ;Structure.c: 379: actualPosition=index;
  4399  00084E  C011  F038         	movff	_index,_actualPosition
  4400                           
  4401                           ;Structure.c: 382: TOSH = TaskArray[index].currentAdd2;
  4402  000852  5011               	movf	_index,w,c
  4403  000854  0D15               	mullw	21
  4404  000856  0E07               	movlw	7
  4405  000858  26F3               	addwf	prodl,f,c
  4406  00085A  0E00               	movlw	0
  4407  00085C  22F4               	addwfc	prodh,f,c
  4408  00085E  0E00               	movlw	low _TaskArray
  4409  000860  24F3               	addwf	prodl,w,c
  4410  000862  6ED9               	movwf	fsr2l,c
  4411  000864  0E01               	movlw	high _TaskArray
  4412  000866  20F4               	addwfc	prodh,w,c
  4413  000868  6EDA               	movwf	fsr2h,c
  4414  00086A  50DF               	movf	indf2,w,c
  4415  00086C  6EFE               	movwf	tosh,c	;volatile
  4416                           
  4417                           ;Structure.c: 383: TOSU = TaskArray[index].currentAdd3;
  4418  00086E  5011               	movf	_index,w,c
  4419  000870  0D15               	mullw	21
  4420  000872  0E08               	movlw	8
  4421  000874  26F3               	addwf	prodl,f,c
  4422  000876  0E00               	movlw	0
  4423  000878  22F4               	addwfc	prodh,f,c
  4424  00087A  0E00               	movlw	low _TaskArray
  4425  00087C  24F3               	addwf	prodl,w,c
  4426  00087E  6ED9               	movwf	fsr2l,c
  4427  000880  0E01               	movlw	high _TaskArray
  4428  000882  20F4               	addwfc	prodh,w,c
  4429  000884  6EDA               	movwf	fsr2h,c
  4430  000886  50DF               	movf	indf2,w,c
  4431  000888  6EFF               	movwf	tosu,c	;volatile
  4432                           
  4433                           ;Structure.c: 384: TOSL = TaskArray[index].currentAdd1;
  4434  00088A  5011               	movf	_index,w,c
  4435  00088C  0D15               	mullw	21
  4436  00088E  0E06               	movlw	6
  4437  000890  26F3               	addwf	prodl,f,c
  4438  000892  0E00               	movlw	0
  4439  000894  22F4               	addwfc	prodh,f,c
  4440  000896  0E00               	movlw	low _TaskArray
  4441  000898  24F3               	addwf	prodl,w,c
  4442  00089A  6ED9               	movwf	fsr2l,c
  4443  00089C  0E01               	movlw	high _TaskArray
  4444  00089E  20F4               	addwfc	prodh,w,c
  4445  0008A0  6EDA               	movwf	fsr2h,c
  4446  0008A2  50DF               	movf	indf2,w,c
  4447  0008A4  6EFD               	movwf	tosl,c	;volatile
  4448                           
  4449                           ;Structure.c: 385: GIE = 1;
  4450  0008A6  8EF2               	bsf	intcon,7,c	;volatile
  4451                           
  4452                           ;Structure.c: 387: if(TaskArray[index].state==3){
  4453  0008A8  5011               	movf	_index,w,c
  4454  0008AA  0D15               	mullw	21
  4455  0008AC  0E03               	movlw	3
  4456  0008AE  26F3               	addwf	prodl,f,c
  4457  0008B0  0E00               	movlw	0
  4458  0008B2  22F4               	addwfc	prodh,f,c
  4459  0008B4  0E00               	movlw	low _TaskArray
  4460  0008B6  24F3               	addwf	prodl,w,c
  4461  0008B8  6ED9               	movwf	fsr2l,c
  4462  0008BA  0E01               	movlw	high _TaskArray
  4463  0008BC  20F4               	addwfc	prodh,w,c
  4464  0008BE  6EDA               	movwf	fsr2h,c
  4465  0008C0  0E03               	movlw	3
  4466  0008C2  18DE               	xorwf	postinc2,w,c
  4467  0008C4  A4D8               	btfss	status,2,c
  4468  0008C6  0012               	return	
  4469                           
  4470                           ;Structure.c: 388: STATUS = TaskArray[index].backupStatus;
  4471  0008C8  5011               	movf	_index,w,c
  4472  0008CA  0D15               	mullw	21
  4473  0008CC  0E09               	movlw	9
  4474  0008CE  26F3               	addwf	prodl,f,c
  4475  0008D0  0E00               	movlw	0
  4476  0008D2  22F4               	addwfc	prodh,f,c
  4477  0008D4  0E00               	movlw	low _TaskArray
  4478  0008D6  24F3               	addwf	prodl,w,c
  4479  0008D8  6ED9               	movwf	fsr2l,c
  4480  0008DA  0E01               	movlw	high _TaskArray
  4481  0008DC  20F4               	addwfc	prodh,w,c
  4482  0008DE  6EDA               	movwf	fsr2h,c
  4483  0008E0  50DF               	movf	indf2,w,c
  4484  0008E2  6ED8               	movwf	status,c	;volatile
  4485                           
  4486                           ;Structure.c: 389: BSR = TaskArray[index].backupBsr;
  4487  0008E4  5011               	movf	_index,w,c
  4488  0008E6  0D15               	mullw	21
  4489  0008E8  0E0B               	movlw	11
  4490  0008EA  26F3               	addwf	prodl,f,c
  4491  0008EC  0E00               	movlw	0
  4492  0008EE  22F4               	addwfc	prodh,f,c
  4493  0008F0  0E00               	movlw	low _TaskArray
  4494  0008F2  24F3               	addwf	prodl,w,c
  4495  0008F4  6ED9               	movwf	fsr2l,c
  4496  0008F6  0E01               	movlw	high _TaskArray
  4497  0008F8  20F4               	addwfc	prodh,w,c
  4498  0008FA  6EDA               	movwf	fsr2h,c
  4499  0008FC  50DF               	movf	indf2,w,c
  4500  0008FE  6EE0               	movwf	bsr,c	;volatile
  4501                           
  4502                           ;Structure.c: 390: WREG = TaskArray[index].backupWreg;
  4503  000900  5011               	movf	_index,w,c
  4504  000902  0D15               	mullw	21
  4505  000904  0E0A               	movlw	10
  4506  000906  26F3               	addwf	prodl,f,c
  4507  000908  0E00               	movlw	0
  4508  00090A  22F4               	addwfc	prodh,f,c
  4509  00090C  0E00               	movlw	low _TaskArray
  4510  00090E  24F3               	addwf	prodl,w,c
  4511  000910  6ED9               	movwf	fsr2l,c
  4512  000912  0E01               	movlw	high _TaskArray
  4513  000914  20F4               	addwfc	prodh,w,c
  4514  000916  6EDA               	movwf	fsr2h,c
  4515  000918  50DF               	movf	indf2,w,c
  4516  00091A  6E1B               	movwf	??_OSRun& (0+255),c
  4517  00091C  501B               	movf	??_OSRun,w,c
  4518  00091E  0012               	return	
  4519  000920                     __end_of_OSRun:
  4520                           	opt stack 0
  4521                           tosu	equ	0xFFF
  4522                           tosh	equ	0xFFE
  4523                           tosl	equ	0xFFD
  4524                           stkptr	equ	0xFFC
  4525                           pclatu	equ	0xFFB
  4526                           pclath	equ	0xFFA
  4527                           tblptru	equ	0xFF8
  4528                           tblptrh	equ	0xFF7
  4529                           tblptrl	equ	0xFF6
  4530                           tablat	equ	0xFF5
  4531                           prodh	equ	0xFF4
  4532                           prodl	equ	0xFF3
  4533                           intcon	equ	0xFF2
  4534                           postinc0	equ	0xFEE
  4535                           fsr0h	equ	0xFEA
  4536                           fsr0l	equ	0xFE9
  4537                           wreg	equ	0xFE8
  4538                           indf1	equ	0xFE7
  4539                           postdec1	equ	0xFE5
  4540                           fsr1h	equ	0xFE2
  4541                           fsr1l	equ	0xFE1
  4542                           bsr	equ	0xFE0
  4543                           indf2	equ	0xFDF
  4544                           postinc2	equ	0xFDE
  4545                           postdec2	equ	0xFDD
  4546                           fsr2h	equ	0xFDA
  4547                           fsr2l	equ	0xFD9
  4548                           status	equ	0xFD8
  4549                           
  4550 ;; *************** function _DoneReading *****************
  4551 ;; Defined at:
  4552 ;;		line 194 in file "Structure.c"
  4553 ;; Parameters:    Size  Location     Type
  4554 ;;  writter         1    wreg     unsigned char 
  4555 ;; Auto vars:     Size  Location     Type
  4556 ;;  writter         1    1[COMRAM] unsigned char 
  4557 ;; Return value:  Size  Location     Type
  4558 ;;		None               void
  4559 ;; Registers used:
  4560 ;;		wreg, fsr2l, fsr2h, status,2, status,0, prodl, prodh
  4561 ;; Tracked objects:
  4562 ;;		On entry : 0/0
  4563 ;;		On exit  : 0/0
  4564 ;;		Unchanged: 0/0
  4565 ;; Data sizes:     COMRAM   BANK0   BANK1   BANK2   BANK3   BANK4   BANK5   BANK6   BANK7
  4566 ;;      Params:         0       0       0       0       0       0       0       0       0
  4567 ;;      Locals:         1       0       0       0       0       0       0       0       0
  4568 ;;      Temps:          1       0       0       0       0       0       0       0       0
  4569 ;;      Totals:         2       0       0       0       0       0       0       0       0
  4570 ;;Total ram usage:        2 bytes
  4571 ;; Hardware stack levels used:    1
  4572 ;; Hardware stack levels required when called:    2
  4573 ;; This function calls:
  4574 ;;		Nothing
  4575 ;; This function is called by:
  4576 ;;		_FunctionA
  4577 ;; This function uses a non-reentrant model
  4578 ;;
  4579                           
  4580                           	psect	text25
  4581  0010BA                     __ptext25:
  4582                           	opt stack 0
  4583  0010BA                     _DoneReading:
  4584                           	opt stack 25
  4585                           
  4586                           ;incstack = 0
  4587                           ;DoneReading@writter stored from wreg
  4588  0010BA  6E1C               	movwf	DoneReading@writter,c
  4589                           
  4590                           ;Structure.c: 195: GIE = 0;
  4591  0010BC  9EF2               	bcf	intcon,7,c	;volatile
  4592                           
  4593                           ;Structure.c: 196: index_dr=10;
  4594  0010BE  0E0A               	movlw	10
  4595  0010C0  6E12               	movwf	_index_dr,c
  4596                           
  4597                           ;Structure.c: 197: for(i_dr=0;i_dr<11;i_dr++){
  4598  0010C2  0E00               	movlw	0
  4599  0010C4  6E0C               	movwf	_i_dr,c
  4600  0010C6                     i1l1571:
  4601  0010C6  0E0A               	movlw	10
  4602  0010C8  640C               	cpfsgt	_i_dr,c
  4603  0010CA  D001               	goto	i1l1575
  4604  0010CC  D01F               	goto	i1l1585
  4605  0010CE                     i1l1575:
  4606                           
  4607                           ;Structure.c: 198: if(MailBoxArray[i_dr].Writer==writter && MailBoxArray[i_dr].Reader==a
      +                          ctualPosition){
  4608  0010CE  500C               	movf	_i_dr,w,c
  4609  0010D0  0D08               	mullw	8
  4610  0010D2  0E01               	movlw	1
  4611  0010D4  26F3               	addwf	prodl,f,c
  4612  0010D6  0E00               	movlw	0
  4613  0010D8  22F4               	addwfc	prodh,f,c
  4614  0010DA  0E60               	movlw	low _MailBoxArray
  4615  0010DC  24F3               	addwf	prodl,w,c
  4616  0010DE  6ED9               	movwf	fsr2l,c
  4617  0010E0  0E00               	movlw	high _MailBoxArray
  4618  0010E2  20F4               	addwfc	prodh,w,c
  4619  0010E4  6EDA               	movwf	fsr2h,c
  4620  0010E6  501C               	movf	DoneReading@writter,w,c
  4621  0010E8  18DE               	xorwf	postinc2,w,c
  4622  0010EA  A4D8               	btfss	status,2,c
  4623  0010EC  D00D               	goto	i1l1581
  4624  0010EE  500C               	movf	_i_dr,w,c
  4625  0010F0  0D08               	mullw	8
  4626  0010F2  0E60               	movlw	low _MailBoxArray
  4627  0010F4  24F3               	addwf	prodl,w,c
  4628  0010F6  6ED9               	movwf	fsr2l,c
  4629  0010F8  0E00               	movlw	high _MailBoxArray
  4630  0010FA  20F4               	addwfc	prodh,w,c
  4631  0010FC  6EDA               	movwf	fsr2h,c
  4632  0010FE  5038               	movf	_actualPosition,w,c
  4633  001100  18DE               	xorwf	postinc2,w,c
  4634  001102  B4D8               	btfsc	status,2,c
  4635                           
  4636                           ;Structure.c: 199: index_dr=i_dr;
  4637  001104  C00C  F012         	movff	_i_dr,_index_dr
  4638  001108                     i1l1581:
  4639  001108  2A0C               	incf	_i_dr,f,c
  4640  00110A  D7DD               	goto	i1l1571
  4641  00110C                     i1l1585:
  4642                           
  4643                           ;Structure.c: 200: }
  4644                           ;Structure.c: 201: }
  4645                           ;Structure.c: 202: MailBoxArray[index_dr].ReaderDone=1;
  4646  00110C  5012               	movf	_index_dr,w,c
  4647  00110E  0D08               	mullw	8
  4648  001110  0E05               	movlw	5
  4649  001112  26F3               	addwf	prodl,f,c
  4650  001114  0E00               	movlw	0
  4651  001116  22F4               	addwfc	prodh,f,c
  4652  001118  0E60               	movlw	low _MailBoxArray
  4653  00111A  24F3               	addwf	prodl,w,c
  4654  00111C  6ED9               	movwf	fsr2l,c
  4655  00111E  0E00               	movlw	high _MailBoxArray
  4656  001120  20F4               	addwfc	prodh,w,c
  4657  001122  6EDA               	movwf	fsr2h,c
  4658  001124  0E01               	movlw	1
  4659  001126  6EDF               	movwf	indf2,c
  4660                           
  4661                           ;Structure.c: 203: if(MailBoxArray[index_dr].WriterDone==1){
  4662  001128  5012               	movf	_index_dr,w,c
  4663  00112A  0D08               	mullw	8
  4664  00112C  0E04               	movlw	4
  4665  00112E  26F3               	addwf	prodl,f,c
  4666  001130  0E00               	movlw	0
  4667  001132  22F4               	addwfc	prodh,f,c
  4668  001134  0E60               	movlw	low _MailBoxArray
  4669  001136  24F3               	addwf	prodl,w,c
  4670  001138  6ED9               	movwf	fsr2l,c
  4671  00113A  0E00               	movlw	high _MailBoxArray
  4672  00113C  20F4               	addwfc	prodh,w,c
  4673  00113E  6EDA               	movwf	fsr2h,c
  4674  001140  04DE               	decf	postinc2,w,c
  4675  001142  A4D8               	btfss	status,2,c
  4676  001144  0012               	return	
  4677                           
  4678                           ;Structure.c: 204: MailBoxArray[index_dr].Connected=0;
  4679  001146  5012               	movf	_index_dr,w,c
  4680  001148  0D08               	mullw	8
  4681  00114A  0E06               	movlw	6
  4682  00114C  26F3               	addwf	prodl,f,c
  4683  00114E  0E00               	movlw	0
  4684  001150  22F4               	addwfc	prodh,f,c
  4685  001152  0E60               	movlw	low _MailBoxArray
  4686  001154  24F3               	addwf	prodl,w,c
  4687  001156  6ED9               	movwf	fsr2l,c
  4688  001158  0E00               	movlw	high _MailBoxArray
  4689  00115A  20F4               	addwfc	prodh,w,c
  4690  00115C  6EDA               	movwf	fsr2h,c
  4691  00115E  0E00               	movlw	0
  4692  001160  6EDF               	movwf	indf2,c
  4693  001162  0012               	return	
  4694  001164                     __end_of_DoneReading:
  4695                           	opt stack 0
  4696                           tosu	equ	0xFFF
  4697                           tosh	equ	0xFFE
  4698                           tosl	equ	0xFFD
  4699                           stkptr	equ	0xFFC
  4700                           pclatu	equ	0xFFB
  4701                           pclath	equ	0xFFA
  4702                           tblptru	equ	0xFF8
  4703                           tblptrh	equ	0xFF7
  4704                           tblptrl	equ	0xFF6
  4705                           tablat	equ	0xFF5
  4706                           prodh	equ	0xFF4
  4707                           prodl	equ	0xFF3
  4708                           intcon	equ	0xFF2
  4709                           postinc0	equ	0xFEE
  4710                           fsr0h	equ	0xFEA
  4711                           fsr0l	equ	0xFE9
  4712                           wreg	equ	0xFE8
  4713                           indf1	equ	0xFE7
  4714                           postdec1	equ	0xFE5
  4715                           fsr1h	equ	0xFE2
  4716                           fsr1l	equ	0xFE1
  4717                           bsr	equ	0xFE0
  4718                           indf2	equ	0xFDF
  4719                           postinc2	equ	0xFDE
  4720                           postdec2	equ	0xFDD
  4721                           fsr2h	equ	0xFDA
  4722                           fsr2l	equ	0xFD9
  4723                           status	equ	0xFD8
  4724                           
  4725 ;; *************** function _High_Priority_Interrupt *****************
  4726 ;; Defined at:
  4727 ;;		line 110 in file "main.c"
  4728 ;; Parameters:    Size  Location     Type
  4729 ;;		None
  4730 ;; Auto vars:     Size  Location     Type
  4731 ;;		None
  4732 ;; Return value:  Size  Location     Type
  4733 ;;		None               void
  4734 ;; Registers used:
  4735 ;;		wreg, fsr2l, fsr2h, status,2, status,0, prodl, prodh, cstack
  4736 ;; Tracked objects:
  4737 ;;		On entry : 0/0
  4738 ;;		On exit  : 0/0
  4739 ;;		Unchanged: 0/0
  4740 ;; Data sizes:     COMRAM   BANK0   BANK1   BANK2   BANK3   BANK4   BANK5   BANK6   BANK7
  4741 ;;      Params:         0       0       0       0       0       0       0       0       0
  4742 ;;      Locals:         0       0       0       0       0       0       0       0       0
  4743 ;;      Temps:          0      14       0       0       0       0       0       0       0
  4744 ;;      Totals:         0      14       0       0       0       0       0       0       0
  4745 ;;Total ram usage:       14 bytes
  4746 ;; Hardware stack levels used:    1
  4747 ;; Hardware stack levels required when called:    1
  4748 ;; This function calls:
  4749 ;;		_reductionTime
  4750 ;;		_saveInterruptedState
  4751 ;;		_xInterruptTaskCreate
  4752 ;; This function is called by:
  4753 ;;		Interrupt level 2
  4754 ;; This function uses a non-reentrant model
  4755 ;;
  4756                           
  4757                           	psect	intcode
  4758  000008                     __pintcode:
  4759                           	opt stack 0
  4760  000008                     _High_Priority_Interrupt:
  4761                           	opt stack 24
  4762                           
  4763                           ;incstack = 0
  4764  000008  8244               	bsf	btemp,1,c	;set compiler interrupt flag (level 2)
  4765  00000A  CFFA F0BE          	movff	pclath,??_High_Priority_Interrupt
  4766  00000E  CFFB F0BF          	movff	pclatu,??_High_Priority_Interrupt+1
  4767  000012  EDB2  F008         	call	int_func,f	;refresh shadow registers
  4768                           tosu	equ	0xFFF
  4769                           tosh	equ	0xFFE
  4770                           tosl	equ	0xFFD
  4771                           stkptr	equ	0xFFC
  4772                           pclatu	equ	0xFFB
  4773                           pclath	equ	0xFFA
  4774                           tblptru	equ	0xFF8
  4775                           tblptrh	equ	0xFF7
  4776                           tblptrl	equ	0xFF6
  4777                           tablat	equ	0xFF5
  4778                           prodh	equ	0xFF4
  4779                           prodl	equ	0xFF3
  4780                           intcon	equ	0xFF2
  4781                           postinc0	equ	0xFEE
  4782                           fsr0h	equ	0xFEA
  4783                           fsr0l	equ	0xFE9
  4784                           wreg	equ	0xFE8
  4785                           indf1	equ	0xFE7
  4786                           postdec1	equ	0xFE5
  4787                           fsr1h	equ	0xFE2
  4788                           fsr1l	equ	0xFE1
  4789                           bsr	equ	0xFE0
  4790                           indf2	equ	0xFDF
  4791                           postinc2	equ	0xFDE
  4792                           postdec2	equ	0xFDD
  4793                           fsr2h	equ	0xFDA
  4794                           fsr2l	equ	0xFD9
  4795                           status	equ	0xFD8
  4796                           
  4797                           	psect	intcode_body
  4798  001164                     __pintcode_body:
  4799                           	opt stack 24
  4800  001164                     int_func:
  4801                           	opt stack 24
  4802  001164  0006               	pop		; remove dummy address from shadow register refresh
  4803  001166  CFE9 F0C0          	movff	fsr0l,??_High_Priority_Interrupt+2
  4804  00116A  CFEA F0C1          	movff	fsr0h,??_High_Priority_Interrupt+3
  4805  00116E  CFE1 F0C2          	movff	fsr1l,??_High_Priority_Interrupt+4
  4806  001172  CFE2 F0C3          	movff	fsr1h,??_High_Priority_Interrupt+5
  4807  001176  CFD9 F0C4          	movff	fsr2l,??_High_Priority_Interrupt+6
  4808  00117A  CFDA F0C5          	movff	fsr2h,??_High_Priority_Interrupt+7
  4809  00117E  CFF3 F0C6          	movff	prodl,??_High_Priority_Interrupt+8
  4810  001182  CFF4 F0C7          	movff	prodh,??_High_Priority_Interrupt+9
  4811  001186  CFF6 F0C8          	movff	tblptrl,??_High_Priority_Interrupt+10
  4812  00118A  CFF7 F0C9          	movff	tblptrh,??_High_Priority_Interrupt+11
  4813  00118E  CFF8 F0CA          	movff	tblptru,??_High_Priority_Interrupt+12
  4814  001192  CFF5 F0CB          	movff	tablat,??_High_Priority_Interrupt+13
  4815                           
  4816                           ;main.c: 111: saveInterruptedState();
  4817  001196  ECC7  F005         	call	_saveInterruptedState	;wreg free
  4818                           
  4819                           ;main.c: 112: if(INT0IE && INT0IF){
  4820  00119A  B8F2               	btfsc	intcon,4,c	;volatile
  4821  00119C  A2F2               	btfss	intcon,1,c	;volatile
  4822  00119E  D013               	goto	i2l1823
  4823                           
  4824                           ;main.c: 114: INTCON &= 0xFD;
  4825  0011A0  92F2               	bcf	intcon,1,c	;volatile
  4826  0011A2  F000               	nop		;# 
  4827                           
  4828                           ;main.c: 116: xInterruptTaskCreate(&FunctionA,0,1);
  4829  0011A4  0E90               	movlw	low _FunctionA
  4830  0011A6  0100               	movlb	0	; () banked
  4831  0011A8  6FB8               	movwf	xInterruptTaskCreate@pvTaskCode& (0+255),b
  4832  0011AA  0E12               	movlw	high _FunctionA
  4833  0011AC  6FB9               	movwf	(xInterruptTaskCreate@pvTaskCode+1)& (0+255),b
  4834  0011AE  0E00               	movlw	low (_FunctionA shr (0+16))
  4835  0011B0  6FBA               	movwf	(xInterruptTaskCreate@pvTaskCode+2)& (0+255),b
  4836  0011B2  0E00               	movlw	high (_FunctionA shr (0+16))
  4837  0011B4  6FBB               	movwf	(xInterruptTaskCreate@pvTaskCode+3)& (0+255),b
  4838  0011B6  0E00               	movlw	0
  4839  0011B8  0100               	movlb	0	; () banked
  4840  0011BA  6FBC               	movwf	xInterruptTaskCreate@Id& (0+255),b
  4841  0011BC  0E01               	movlw	1
  4842  0011BE  0100               	movlb	0	; () banked
  4843  0011C0  6FBD               	movwf	xInterruptTaskCreate@Prior& (0+255),b
  4844  0011C2  EC3B  F005         	call	_xInterruptTaskCreate	;wreg free
  4845  0011C6                     i2l1823:
  4846                           
  4847                           ;main.c: 117: }
  4848                           ;main.c: 119: if(TMR0IE && TMR0IF){
  4849  0011C6  BAF2               	btfsc	intcon,5,c	;volatile
  4850  0011C8  A4F2               	btfss	intcon,2,c	;volatile
  4851  0011CA  D003               	goto	i2l86
  4852                           
  4853                           ;main.c: 121: TMR0IF=0;
  4854  0011CC  94F2               	bcf	intcon,2,c	;volatile
  4855                           
  4856                           ;main.c: 122: reductionTime();
  4857  0011CE  ECF5  F006         	call	_reductionTime	;wreg free
  4858  0011D2                     i2l86:
  4859  0011D2  C0CB  FFF5         	movff	??_High_Priority_Interrupt+13,tablat
  4860  0011D6  C0CA  FFF8         	movff	??_High_Priority_Interrupt+12,tblptru
  4861  0011DA  C0C9  FFF7         	movff	??_High_Priority_Interrupt+11,tblptrh
  4862  0011DE  C0C8  FFF6         	movff	??_High_Priority_Interrupt+10,tblptrl
  4863  0011E2  C0C7  FFF4         	movff	??_High_Priority_Interrupt+9,prodh
  4864  0011E6  C0C6  FFF3         	movff	??_High_Priority_Interrupt+8,prodl
  4865  0011EA  C0C5  FFDA         	movff	??_High_Priority_Interrupt+7,fsr2h
  4866  0011EE  C0C4  FFD9         	movff	??_High_Priority_Interrupt+6,fsr2l
  4867  0011F2  C0C3  FFE2         	movff	??_High_Priority_Interrupt+5,fsr1h
  4868  0011F6  C0C2  FFE1         	movff	??_High_Priority_Interrupt+4,fsr1l
  4869  0011FA  C0C1  FFEA         	movff	??_High_Priority_Interrupt+3,fsr0h
  4870  0011FE  C0C0  FFE9         	movff	??_High_Priority_Interrupt+2,fsr0l
  4871  001202  C0BF  FFFB         	movff	??_High_Priority_Interrupt+1,pclatu
  4872  001206  C0BE  FFFA         	movff	??_High_Priority_Interrupt,pclath
  4873  00120A  9244               	bcf	btemp,1,c	;clear compiler interrupt flag (level 2)
  4874  00120C  0011               	retfie		f
  4875  00120E                     __end_of_High_Priority_Interrupt:
  4876                           	opt stack 0
  4877                           tosu	equ	0xFFF
  4878                           tosh	equ	0xFFE
  4879                           tosl	equ	0xFFD
  4880                           stkptr	equ	0xFFC
  4881                           pclatu	equ	0xFFB
  4882                           pclath	equ	0xFFA
  4883                           tblptru	equ	0xFF8
  4884                           tblptrh	equ	0xFF7
  4885                           tblptrl	equ	0xFF6
  4886                           tablat	equ	0xFF5
  4887                           prodh	equ	0xFF4
  4888                           prodl	equ	0xFF3
  4889                           intcon	equ	0xFF2
  4890                           postinc0	equ	0xFEE
  4891                           fsr0h	equ	0xFEA
  4892                           fsr0l	equ	0xFE9
  4893                           wreg	equ	0xFE8
  4894                           indf1	equ	0xFE7
  4895                           postdec1	equ	0xFE5
  4896                           fsr1h	equ	0xFE2
  4897                           fsr1l	equ	0xFE1
  4898                           bsr	equ	0xFE0
  4899                           indf2	equ	0xFDF
  4900                           postinc2	equ	0xFDE
  4901                           postdec2	equ	0xFDD
  4902                           fsr2h	equ	0xFDA
  4903                           fsr2l	equ	0xFD9
  4904                           status	equ	0xFD8
  4905                           
  4906 ;; *************** function _xInterruptTaskCreate *****************
  4907 ;; Defined at:
  4908 ;;		line 286 in file "Structure.c"
  4909 ;; Parameters:    Size  Location     Type
  4910 ;;  pvTaskCode      4    0[BANK0 ] unsigned long 
  4911 ;;  Id              1    4[BANK0 ] unsigned char 
  4912 ;;  Prior           1    5[BANK0 ] unsigned char 
  4913 ;; Auto vars:     Size  Location     Type
  4914 ;;		None
  4915 ;; Return value:  Size  Location     Type
  4916 ;;		None               void
  4917 ;; Registers used:
  4918 ;;		wreg, fsr2l, fsr2h, status,2, status,0, prodl, prodh
  4919 ;; Tracked objects:
  4920 ;;		On entry : 0/0
  4921 ;;		On exit  : 0/0
  4922 ;;		Unchanged: 0/0
  4923 ;; Data sizes:     COMRAM   BANK0   BANK1   BANK2   BANK3   BANK4   BANK5   BANK6   BANK7
  4924 ;;      Params:         0       6       0       0       0       0       0       0       0
  4925 ;;      Locals:         0       0       0       0       0       0       0       0       0
  4926 ;;      Temps:          0       0       0       0       0       0       0       0       0
  4927 ;;      Totals:         0       6       0       0       0       0       0       0       0
  4928 ;;Total ram usage:        6 bytes
  4929 ;; Hardware stack levels used:    1
  4930 ;; This function calls:
  4931 ;;		Nothing
  4932 ;; This function is called by:
  4933 ;;		_High_Priority_Interrupt
  4934 ;; This function uses a non-reentrant model
  4935 ;;
  4936                           
  4937                           	psect	text27
  4938  000A76                     __ptext27:
  4939                           	opt stack 0
  4940  000A76                     _xInterruptTaskCreate:
  4941                           	opt stack 24
  4942                           
  4943                           ;Structure.c: 287: GIE = 0;
  4944                           
  4945                           ;incstack = 0
  4946  000A76  9EF2               	bcf	intcon,7,c	;volatile
  4947                           
  4948                           ;Structure.c: 296: TaskArray[Id].Id=Id;
  4949  000A78  0100               	movlb	0	; () banked
  4950  000A7A  51BC               	movf	xInterruptTaskCreate@Id& (0+255),w,b
  4951  000A7C  0D15               	mullw	21
  4952  000A7E  0E04               	movlw	4
  4953  000A80  26F3               	addwf	prodl,f,c
  4954  000A82  0E00               	movlw	0
  4955  000A84  22F4               	addwfc	prodh,f,c
  4956  000A86  0E00               	movlw	low _TaskArray
  4957  000A88  24F3               	addwf	prodl,w,c
  4958  000A8A  6ED9               	movwf	fsr2l,c
  4959  000A8C  0E01               	movlw	high _TaskArray
  4960  000A8E  20F4               	addwfc	prodh,w,c
  4961  000A90  6EDA               	movwf	fsr2h,c
  4962  000A92  C0BC  FFDF         	movff	xInterruptTaskCreate@Id,indf2
  4963                           
  4964                           ;Structure.c: 297: TaskArray[Id].state=2;
  4965  000A96  0100               	movlb	0	; () banked
  4966  000A98  51BC               	movf	xInterruptTaskCreate@Id& (0+255),w,b
  4967  000A9A  0D15               	mullw	21
  4968  000A9C  0E03               	movlw	3
  4969  000A9E  26F3               	addwf	prodl,f,c
  4970  000AA0  0E00               	movlw	0
  4971  000AA2  22F4               	addwfc	prodh,f,c
  4972  000AA4  0E00               	movlw	low _TaskArray
  4973  000AA6  24F3               	addwf	prodl,w,c
  4974  000AA8  6ED9               	movwf	fsr2l,c
  4975  000AAA  0E01               	movlw	high _TaskArray
  4976  000AAC  20F4               	addwfc	prodh,w,c
  4977  000AAE  6EDA               	movwf	fsr2h,c
  4978  000AB0  0E02               	movlw	2
  4979  000AB2  6EDF               	movwf	indf2,c
  4980                           
  4981                           ;Structure.c: 298: TaskArray[Id].Add3=(pvTaskCode & 0x00ff0000) >> 16;
  4982  000AB4  0100               	movlb	0	; () banked
  4983  000AB6  51BC               	movf	xInterruptTaskCreate@Id& (0+255),w,b
  4984  000AB8  0D15               	mullw	21
  4985  000ABA  0E02               	movlw	2
  4986  000ABC  26F3               	addwf	prodl,f,c
  4987  000ABE  0E00               	movlw	0
  4988  000AC0  22F4               	addwfc	prodh,f,c
  4989  000AC2  0E00               	movlw	low _TaskArray
  4990  000AC4  24F3               	addwf	prodl,w,c
  4991  000AC6  6ED9               	movwf	fsr2l,c
  4992  000AC8  0E01               	movlw	high _TaskArray
  4993  000ACA  20F4               	addwfc	prodh,w,c
  4994  000ACC  6EDA               	movwf	fsr2h,c
  4995  000ACE  C0BA  FFDF         	movff	xInterruptTaskCreate@pvTaskCode+2,indf2
  4996                           
  4997                           ;Structure.c: 299: TaskArray[Id].Add2=(pvTaskCode & 0x0000ff00) >> 8;
  4998  000AD2  0100               	movlb	0	; () banked
  4999  000AD4  51BC               	movf	xInterruptTaskCreate@Id& (0+255),w,b
  5000  000AD6  0D15               	mullw	21
  5001  000AD8  0E01               	movlw	1
  5002  000ADA  26F3               	addwf	prodl,f,c
  5003  000ADC  0E00               	movlw	0
  5004  000ADE  22F4               	addwfc	prodh,f,c
  5005  000AE0  0E00               	movlw	low _TaskArray
  5006  000AE2  24F3               	addwf	prodl,w,c
  5007  000AE4  6ED9               	movwf	fsr2l,c
  5008  000AE6  0E01               	movlw	high _TaskArray
  5009  000AE8  20F4               	addwfc	prodh,w,c
  5010  000AEA  6EDA               	movwf	fsr2h,c
  5011  000AEC  C0B9  FFDF         	movff	xInterruptTaskCreate@pvTaskCode+1,indf2
  5012                           
  5013                           ;Structure.c: 300: TaskArray[Id].Add1=(pvTaskCode & 0x000000ff);
  5014  000AF0  0100               	movlb	0	; () banked
  5015  000AF2  51BC               	movf	xInterruptTaskCreate@Id& (0+255),w,b
  5016  000AF4  0D15               	mullw	21
  5017  000AF6  0E00               	movlw	low _TaskArray
  5018  000AF8  24F3               	addwf	prodl,w,c
  5019  000AFA  6ED9               	movwf	fsr2l,c
  5020  000AFC  0E01               	movlw	high _TaskArray
  5021  000AFE  20F4               	addwfc	prodh,w,c
  5022  000B00  6EDA               	movwf	fsr2h,c
  5023  000B02  C0B8  FFDF         	movff	xInterruptTaskCreate@pvTaskCode,indf2
  5024                           
  5025                           ;Structure.c: 301: TaskArray[Id].currentAdd3=(pvTaskCode & 0x00ff0000) >> 16;
  5026  000B06  0100               	movlb	0	; () banked
  5027  000B08  51BC               	movf	xInterruptTaskCreate@Id& (0+255),w,b
  5028  000B0A  0D15               	mullw	21
  5029  000B0C  0E08               	movlw	8
  5030  000B0E  26F3               	addwf	prodl,f,c
  5031  000B10  0E00               	movlw	0
  5032  000B12  22F4               	addwfc	prodh,f,c
  5033  000B14  0E00               	movlw	low _TaskArray
  5034  000B16  24F3               	addwf	prodl,w,c
  5035  000B18  6ED9               	movwf	fsr2l,c
  5036  000B1A  0E01               	movlw	high _TaskArray
  5037  000B1C  20F4               	addwfc	prodh,w,c
  5038  000B1E  6EDA               	movwf	fsr2h,c
  5039  000B20  C0BA  FFDF         	movff	xInterruptTaskCreate@pvTaskCode+2,indf2
  5040                           
  5041                           ;Structure.c: 302: TaskArray[Id].currentAdd2=(pvTaskCode & 0x0000ff00) >> 8;
  5042  000B24  0100               	movlb	0	; () banked
  5043  000B26  51BC               	movf	xInterruptTaskCreate@Id& (0+255),w,b
  5044  000B28  0D15               	mullw	21
  5045  000B2A  0E07               	movlw	7
  5046  000B2C  26F3               	addwf	prodl,f,c
  5047  000B2E  0E00               	movlw	0
  5048  000B30  22F4               	addwfc	prodh,f,c
  5049  000B32  0E00               	movlw	low _TaskArray
  5050  000B34  24F3               	addwf	prodl,w,c
  5051  000B36  6ED9               	movwf	fsr2l,c
  5052  000B38  0E01               	movlw	high _TaskArray
  5053  000B3A  20F4               	addwfc	prodh,w,c
  5054  000B3C  6EDA               	movwf	fsr2h,c
  5055  000B3E  C0B9  FFDF         	movff	xInterruptTaskCreate@pvTaskCode+1,indf2
  5056                           
  5057                           ;Structure.c: 303: TaskArray[Id].currentAdd1=(pvTaskCode & 0x000000ff);
  5058  000B42  0100               	movlb	0	; () banked
  5059  000B44  51BC               	movf	xInterruptTaskCreate@Id& (0+255),w,b
  5060  000B46  0D15               	mullw	21
  5061  000B48  0E06               	movlw	6
  5062  000B4A  26F3               	addwf	prodl,f,c
  5063  000B4C  0E00               	movlw	0
  5064  000B4E  22F4               	addwfc	prodh,f,c
  5065  000B50  0E00               	movlw	low _TaskArray
  5066  000B52  24F3               	addwf	prodl,w,c
  5067  000B54  6ED9               	movwf	fsr2l,c
  5068  000B56  0E01               	movlw	high _TaskArray
  5069  000B58  20F4               	addwfc	prodh,w,c
  5070  000B5A  6EDA               	movwf	fsr2h,c
  5071  000B5C  C0B8  FFDF         	movff	xInterruptTaskCreate@pvTaskCode,indf2
  5072                           
  5073                           ;Structure.c: 304: TaskArray[Id].Priority=Prior;
  5074  000B60  0100               	movlb	0	; () banked
  5075  000B62  51BC               	movf	xInterruptTaskCreate@Id& (0+255),w,b
  5076  000B64  0D15               	mullw	21
  5077  000B66  0E05               	movlw	5
  5078  000B68  26F3               	addwf	prodl,f,c
  5079  000B6A  0E00               	movlw	0
  5080  000B6C  22F4               	addwfc	prodh,f,c
  5081  000B6E  0E00               	movlw	low _TaskArray
  5082  000B70  24F3               	addwf	prodl,w,c
  5083  000B72  6ED9               	movwf	fsr2l,c
  5084  000B74  0E01               	movlw	high _TaskArray
  5085  000B76  20F4               	addwfc	prodh,w,c
  5086  000B78  6EDA               	movwf	fsr2h,c
  5087  000B7A  C0BD  FFDF         	movff	xInterruptTaskCreate@Prior,indf2
  5088                           
  5089                           ; BSR set to: 0
  5090                           ;Structure.c: 311: TOS = &OSRun;
  5091  000B7E  0E74               	movlw	low _OSRun
  5092  000B80  6EFD               	movwf	tosl,c	;volatile
  5093  000B82  0E07               	movlw	high _OSRun
  5094  000B84  6EFE               	movwf	tosh,c	;volatile
  5095  000B86  0E00               	movlw	low (_OSRun shr (0+16))
  5096  000B88  6EFF               	movwf	tosu,c	;volatile
  5097  000B8A  0010               	retfie		;# 
  5098  000B8C  0012               	return		;funcret
  5099  000B8E                     __end_of_xInterruptTaskCreate:
  5100                           	opt stack 0
  5101                           tosu	equ	0xFFF
  5102                           tosh	equ	0xFFE
  5103                           tosl	equ	0xFFD
  5104                           stkptr	equ	0xFFC
  5105                           pclatu	equ	0xFFB
  5106                           pclath	equ	0xFFA
  5107                           tblptru	equ	0xFF8
  5108                           tblptrh	equ	0xFF7
  5109                           tblptrl	equ	0xFF6
  5110                           tablat	equ	0xFF5
  5111                           prodh	equ	0xFF4
  5112                           prodl	equ	0xFF3
  5113                           intcon	equ	0xFF2
  5114                           postinc0	equ	0xFEE
  5115                           fsr0h	equ	0xFEA
  5116                           fsr0l	equ	0xFE9
  5117                           wreg	equ	0xFE8
  5118                           indf1	equ	0xFE7
  5119                           postdec1	equ	0xFE5
  5120                           fsr1h	equ	0xFE2
  5121                           fsr1l	equ	0xFE1
  5122                           bsr	equ	0xFE0
  5123                           indf2	equ	0xFDF
  5124                           postinc2	equ	0xFDE
  5125                           postdec2	equ	0xFDD
  5126                           fsr2h	equ	0xFDA
  5127                           fsr2l	equ	0xFD9
  5128                           status	equ	0xFD8
  5129                           
  5130 ;; *************** function _saveInterruptedState *****************
  5131 ;; Defined at:
  5132 ;;		line 243 in file "Structure.c"
  5133 ;; Parameters:    Size  Location     Type
  5134 ;;		None
  5135 ;; Auto vars:     Size  Location     Type
  5136 ;;		None
  5137 ;; Return value:  Size  Location     Type
  5138 ;;                  2   18[None  ] int 
  5139 ;; Registers used:
  5140 ;;		wreg, fsr2l, fsr2h, status,2, status,0, prodl, prodh
  5141 ;; Tracked objects:
  5142 ;;		On entry : 0/0
  5143 ;;		On exit  : 0/0
  5144 ;;		Unchanged: 0/0
  5145 ;; Data sizes:     COMRAM   BANK0   BANK1   BANK2   BANK3   BANK4   BANK5   BANK6   BANK7
  5146 ;;      Params:         0       0       0       0       0       0       0       0       0
  5147 ;;      Locals:         0       0       0       0       0       0       0       0       0
  5148 ;;      Temps:          0       0       0       0       0       0       0       0       0
  5149 ;;      Totals:         0       0       0       0       0       0       0       0       0
  5150 ;;Total ram usage:        0 bytes
  5151 ;; Hardware stack levels used:    1
  5152 ;; This function calls:
  5153 ;;		Nothing
  5154 ;; This function is called by:
  5155 ;;		_High_Priority_Interrupt
  5156 ;; This function uses a non-reentrant model
  5157 ;;
  5158                           
  5159                           	psect	text28
  5160  000B8E                     __ptext28:
  5161                           	opt stack 0
  5162  000B8E                     _saveInterruptedState:
  5163                           	opt stack 24
  5164                           
  5165                           ;incstack = 0
  5166  000B8E  F000               	nop		;# 
  5167  000B90  6F36               	movwf	54,b	;# 
  5168  000B92  CFD8 F035          	movff	status,53	;# 
  5169  000B96  CFE0 F034          	movff	bsr,52	;# 
  5170                           
  5171                           ;Structure.c: 248: TaskArray[actualPosition].backupWreg = s_WREGBackup;
  5172  000B9A  5038               	movf	_actualPosition,w,c
  5173  000B9C  0D15               	mullw	21
  5174  000B9E  0E0A               	movlw	10
  5175  000BA0  26F3               	addwf	prodl,f,c
  5176  000BA2  0E00               	movlw	0
  5177  000BA4  22F4               	addwfc	prodh,f,c
  5178  000BA6  0E00               	movlw	low _TaskArray
  5179  000BA8  24F3               	addwf	prodl,w,c
  5180  000BAA  6ED9               	movwf	fsr2l,c
  5181  000BAC  0E01               	movlw	high _TaskArray
  5182  000BAE  20F4               	addwfc	prodh,w,c
  5183  000BB0  6EDA               	movwf	fsr2h,c
  5184  000BB2  C037  FFDF         	movff	Structure@s_WREGBackup,indf2
  5185                           
  5186                           ;Structure.c: 249: TaskArray[actualPosition].backupStatus = s_STATUSBackup;
  5187  000BB6  5038               	movf	_actualPosition,w,c
  5188  000BB8  0D15               	mullw	21
  5189  000BBA  0E09               	movlw	9
  5190  000BBC  26F3               	addwf	prodl,f,c
  5191  000BBE  0E00               	movlw	0
  5192  000BC0  22F4               	addwfc	prodh,f,c
  5193  000BC2  0E00               	movlw	low _TaskArray
  5194  000BC4  24F3               	addwf	prodl,w,c
  5195  000BC6  6ED9               	movwf	fsr2l,c
  5196  000BC8  0E01               	movlw	high _TaskArray
  5197  000BCA  20F4               	addwfc	prodh,w,c
  5198  000BCC  6EDA               	movwf	fsr2h,c
  5199  000BCE  C036  FFDF         	movff	Structure@s_STATUSBackup,indf2
  5200                           
  5201                           ;Structure.c: 250: TaskArray[actualPosition].backupBsr = s_BSRBackup;
  5202  000BD2  5038               	movf	_actualPosition,w,c
  5203  000BD4  0D15               	mullw	21
  5204  000BD6  0E0B               	movlw	11
  5205  000BD8  26F3               	addwf	prodl,f,c
  5206  000BDA  0E00               	movlw	0
  5207  000BDC  22F4               	addwfc	prodh,f,c
  5208  000BDE  0E00               	movlw	low _TaskArray
  5209  000BE0  24F3               	addwf	prodl,w,c
  5210  000BE2  6ED9               	movwf	fsr2l,c
  5211  000BE4  0E01               	movlw	high _TaskArray
  5212  000BE6  20F4               	addwfc	prodh,w,c
  5213  000BE8  6EDA               	movwf	fsr2h,c
  5214  000BEA  C035  FFDF         	movff	Structure@s_BSRBackup,indf2
  5215                           
  5216                           ;Structure.c: 253: TaskArray[actualPosition].state = 3;
  5217  000BEE  5038               	movf	_actualPosition,w,c
  5218  000BF0  0D15               	mullw	21
  5219  000BF2  0E03               	movlw	3
  5220  000BF4  26F3               	addwf	prodl,f,c
  5221  000BF6  0E00               	movlw	0
  5222  000BF8  22F4               	addwfc	prodh,f,c
  5223  000BFA  0E00               	movlw	low _TaskArray
  5224  000BFC  24F3               	addwf	prodl,w,c
  5225  000BFE  6ED9               	movwf	fsr2l,c
  5226  000C00  0E01               	movlw	high _TaskArray
  5227  000C02  20F4               	addwfc	prodh,w,c
  5228  000C04  6EDA               	movwf	fsr2h,c
  5229  000C06  0E03               	movlw	3
  5230  000C08  6EDF               	movwf	indf2,c
  5231                           
  5232                           ;Structure.c: 254: STKPTR--;
  5233  000C0A  06FC               	decf	stkptr,f,c	;volatile
  5234                           
  5235                           ;Structure.c: 255: TaskArray[actualPosition].currentAdd3 = TOSU;
  5236  000C0C  5038               	movf	_actualPosition,w,c
  5237  000C0E  0D15               	mullw	21
  5238  000C10  0E08               	movlw	8
  5239  000C12  26F3               	addwf	prodl,f,c
  5240  000C14  0E00               	movlw	0
  5241  000C16  22F4               	addwfc	prodh,f,c
  5242  000C18  0E00               	movlw	low _TaskArray
  5243  000C1A  24F3               	addwf	prodl,w,c
  5244  000C1C  6ED9               	movwf	fsr2l,c
  5245  000C1E  0E01               	movlw	high _TaskArray
  5246  000C20  20F4               	addwfc	prodh,w,c
  5247  000C22  6EDA               	movwf	fsr2h,c
  5248  000C24  CFFF FFDF          	movff	tosu,indf2	;volatile
  5249                           
  5250                           ;Structure.c: 256: TaskArray[actualPosition].currentAdd2 = TOSH;
  5251  000C28  5038               	movf	_actualPosition,w,c
  5252  000C2A  0D15               	mullw	21
  5253  000C2C  0E07               	movlw	7
  5254  000C2E  26F3               	addwf	prodl,f,c
  5255  000C30  0E00               	movlw	0
  5256  000C32  22F4               	addwfc	prodh,f,c
  5257  000C34  0E00               	movlw	low _TaskArray
  5258  000C36  24F3               	addwf	prodl,w,c
  5259  000C38  6ED9               	movwf	fsr2l,c
  5260  000C3A  0E01               	movlw	high _TaskArray
  5261  000C3C  20F4               	addwfc	prodh,w,c
  5262  000C3E  6EDA               	movwf	fsr2h,c
  5263  000C40  CFFE FFDF          	movff	tosh,indf2	;volatile
  5264                           
  5265                           ;Structure.c: 257: TaskArray[actualPosition].currentAdd1 = TOSL;
  5266  000C44  5038               	movf	_actualPosition,w,c
  5267  000C46  0D15               	mullw	21
  5268  000C48  0E06               	movlw	6
  5269  000C4A  26F3               	addwf	prodl,f,c
  5270  000C4C  0E00               	movlw	0
  5271  000C4E  22F4               	addwfc	prodh,f,c
  5272  000C50  0E00               	movlw	low _TaskArray
  5273  000C52  24F3               	addwf	prodl,w,c
  5274  000C54  6ED9               	movwf	fsr2l,c
  5275  000C56  0E01               	movlw	high _TaskArray
  5276  000C58  20F4               	addwfc	prodh,w,c
  5277  000C5A  6EDA               	movwf	fsr2h,c
  5278  000C5C  CFFD FFDF          	movff	tosl,indf2	;volatile
  5279                           
  5280                           ;Structure.c: 258: STKPTR++;
  5281  000C60  2AFC               	incf	stkptr,f,c	;volatile
  5282  000C62  0012               	return		;funcret
  5283  000C64                     __end_of_saveInterruptedState:
  5284                           	opt stack 0
  5285                           tosu	equ	0xFFF
  5286                           tosh	equ	0xFFE
  5287                           tosl	equ	0xFFD
  5288                           stkptr	equ	0xFFC
  5289                           pclatu	equ	0xFFB
  5290                           pclath	equ	0xFFA
  5291                           tblptru	equ	0xFF8
  5292                           tblptrh	equ	0xFF7
  5293                           tblptrl	equ	0xFF6
  5294                           tablat	equ	0xFF5
  5295                           prodh	equ	0xFF4
  5296                           prodl	equ	0xFF3
  5297                           intcon	equ	0xFF2
  5298                           postinc0	equ	0xFEE
  5299                           fsr0h	equ	0xFEA
  5300                           fsr0l	equ	0xFE9
  5301                           wreg	equ	0xFE8
  5302                           indf1	equ	0xFE7
  5303                           postdec1	equ	0xFE5
  5304                           fsr1h	equ	0xFE2
  5305                           fsr1l	equ	0xFE1
  5306                           bsr	equ	0xFE0
  5307                           indf2	equ	0xFDF
  5308                           postinc2	equ	0xFDE
  5309                           postdec2	equ	0xFDD
  5310                           fsr2h	equ	0xFDA
  5311                           fsr2l	equ	0xFD9
  5312                           status	equ	0xFD8
  5313                           
  5314 ;; *************** function _reductionTime *****************
  5315 ;; Defined at:
  5316 ;;		line 223 in file "Structure.c"
  5317 ;; Parameters:    Size  Location     Type
  5318 ;;		None
  5319 ;; Auto vars:     Size  Location     Type
  5320 ;;		None
  5321 ;; Return value:  Size  Location     Type
  5322 ;;                  2   32[None  ] int 
  5323 ;; Registers used:
  5324 ;;		wreg, fsr2l, fsr2h, status,2, status,0, prodl, prodh
  5325 ;; Tracked objects:
  5326 ;;		On entry : 0/0
  5327 ;;		On exit  : 0/0
  5328 ;;		Unchanged: 0/0
  5329 ;; Data sizes:     COMRAM   BANK0   BANK1   BANK2   BANK3   BANK4   BANK5   BANK6   BANK7
  5330 ;;      Params:         0       0       0       0       0       0       0       0       0
  5331 ;;      Locals:         0       0       0       0       0       0       0       0       0
  5332 ;;      Temps:          0       2       0       0       0       0       0       0       0
  5333 ;;      Totals:         0       2       0       0       0       0       0       0       0
  5334 ;;Total ram usage:        2 bytes
  5335 ;; Hardware stack levels used:    1
  5336 ;; This function calls:
  5337 ;;		Nothing
  5338 ;; This function is called by:
  5339 ;;		_High_Priority_Interrupt
  5340 ;; This function uses a non-reentrant model
  5341 ;;
  5342                           
  5343                           	psect	text29
  5344  000DEA                     __ptext29:
  5345                           	opt stack 0
  5346  000DEA                     _reductionTime:
  5347                           	opt stack 24
  5348                           
  5349                           ;Structure.c: 224: for(i=0;i<11;i++){
  5350                           
  5351                           ;incstack = 0
  5352  000DEA  0E00               	movlw	0
  5353  000DEC  6E0A               	movwf	_i,c
  5354  000DEE                     i2l1791:
  5355  000DEE  0E0A               	movlw	10
  5356  000DF0  640A               	cpfsgt	_i,c
  5357  000DF2  D001               	goto	i2l1795
  5358  000DF4  D04D               	goto	i2l1807
  5359  000DF6                     i2l1795:
  5360                           
  5361                           ;Structure.c: 225: if(TaskArray[i].Delayed==1){
  5362  000DF6  500A               	movf	_i,w,c
  5363  000DF8  0D15               	mullw	21
  5364  000DFA  0E0E               	movlw	14
  5365  000DFC  26F3               	addwf	prodl,f,c
  5366  000DFE  0E00               	movlw	0
  5367  000E00  22F4               	addwfc	prodh,f,c
  5368  000E02  0E00               	movlw	low _TaskArray
  5369  000E04  24F3               	addwf	prodl,w,c
  5370  000E06  6ED9               	movwf	fsr2l,c
  5371  000E08  0E01               	movlw	high _TaskArray
  5372  000E0A  20F4               	addwfc	prodh,w,c
  5373  000E0C  6EDA               	movwf	fsr2h,c
  5374  000E0E  04DE               	decf	postinc2,w,c
  5375  000E10  A4D8               	btfss	status,2,c
  5376  000E12  D03C               	goto	i2l269
  5377                           
  5378                           ;Structure.c: 226: TaskArray[i].DelayTime--;
  5379  000E14  500A               	movf	_i,w,c
  5380  000E16  0D15               	mullw	21
  5381  000E18  0E0C               	movlw	12
  5382  000E1A  26F3               	addwf	prodl,f,c
  5383  000E1C  0E00               	movlw	0
  5384  000E1E  22F4               	addwfc	prodh,f,c
  5385  000E20  0E00               	movlw	low _TaskArray
  5386  000E22  24F3               	addwf	prodl,w,c
  5387  000E24  6ED9               	movwf	fsr2l,c
  5388  000E26  0E01               	movlw	high _TaskArray
  5389  000E28  20F4               	addwfc	prodh,w,c
  5390  000E2A  6EDA               	movwf	fsr2h,c
  5391  000E2C  06DE               	decf	postinc2,f,c
  5392  000E2E  0E00               	movlw	0
  5393  000E30  5ADD               	subwfb	postdec2,f,c
  5394                           
  5395                           ;Structure.c: 227: if(TaskArray[i].DelayTime==0){
  5396  000E32  500A               	movf	_i,w,c
  5397  000E34  0D15               	mullw	21
  5398  000E36  0E0C               	movlw	12
  5399  000E38  26F3               	addwf	prodl,f,c
  5400  000E3A  0E00               	movlw	0
  5401  000E3C  22F4               	addwfc	prodh,f,c
  5402  000E3E  0E00               	movlw	low _TaskArray
  5403  000E40  24F3               	addwf	prodl,w,c
  5404  000E42  6ED9               	movwf	fsr2l,c
  5405  000E44  0E01               	movlw	high _TaskArray
  5406  000E46  20F4               	addwfc	prodh,w,c
  5407  000E48  6EDA               	movwf	fsr2h,c
  5408  000E4A  50DE               	movf	postinc2,w,c
  5409  000E4C  10DE               	iorwf	postinc2,w,c
  5410  000E4E  A4D8               	btfss	status,2,c
  5411  000E50  D01D               	goto	i2l269
  5412                           
  5413                           ;Structure.c: 228: cont--;
  5414  000E52  0609               	decf	_cont,f,c
  5415                           
  5416                           ;Structure.c: 229: TaskArray[i].state=2;
  5417  000E54  500A               	movf	_i,w,c
  5418  000E56  0D15               	mullw	21
  5419  000E58  0E03               	movlw	3
  5420  000E5A  26F3               	addwf	prodl,f,c
  5421  000E5C  0E00               	movlw	0
  5422  000E5E  22F4               	addwfc	prodh,f,c
  5423  000E60  0E00               	movlw	low _TaskArray
  5424  000E62  24F3               	addwf	prodl,w,c
  5425  000E64  6ED9               	movwf	fsr2l,c
  5426  000E66  0E01               	movlw	high _TaskArray
  5427  000E68  20F4               	addwfc	prodh,w,c
  5428  000E6A  6EDA               	movwf	fsr2h,c
  5429  000E6C  0E02               	movlw	2
  5430  000E6E  6EDF               	movwf	indf2,c
  5431                           
  5432                           ;Structure.c: 230: TaskArray[i].Delayed=0;
  5433  000E70  500A               	movf	_i,w,c
  5434  000E72  0D15               	mullw	21
  5435  000E74  0E0E               	movlw	14
  5436  000E76  26F3               	addwf	prodl,f,c
  5437  000E78  0E00               	movlw	0
  5438  000E7A  22F4               	addwfc	prodh,f,c
  5439  000E7C  0E00               	movlw	low _TaskArray
  5440  000E7E  24F3               	addwf	prodl,w,c
  5441  000E80  6ED9               	movwf	fsr2l,c
  5442  000E82  0E01               	movlw	high _TaskArray
  5443  000E84  20F4               	addwfc	prodh,w,c
  5444  000E86  6EDA               	movwf	fsr2h,c
  5445  000E88  0E00               	movlw	0
  5446  000E8A  6EDF               	movwf	indf2,c
  5447  000E8C                     i2l269:
  5448  000E8C  2A0A               	incf	_i,f,c
  5449  000E8E  D7AF               	goto	i2l1791
  5450  000E90                     i2l1807:
  5451                           
  5452                           ;Structure.c: 231: }
  5453                           ;Structure.c: 232: }
  5454                           ;Structure.c: 233: }
  5455                           ;Structure.c: 234: if(cont==0){
  5456  000E90  5009               	movf	_cont,w,c
  5457  000E92  B4D8               	btfsc	status,2,c
  5458                           
  5459                           ;Structure.c: 235: TMR0IE=0;
  5460  000E94  9AF2               	bcf	intcon,5,c	;volatile
  5461                           
  5462                           ;Structure.c: 236: }
  5463                           ;Structure.c: 238: TOS = &OSRun;
  5464  000E96  0E74               	movlw	low _OSRun
  5465  000E98  6EFD               	movwf	tosl,c	;volatile
  5466  000E9A  0E07               	movlw	high _OSRun
  5467  000E9C  6EFE               	movwf	tosh,c	;volatile
  5468  000E9E  0E00               	movlw	low (_OSRun shr (0+16))
  5469  000EA0  6EFF               	movwf	tosu,c	;volatile
  5470  000EA2  0010               	retfie		;# 
  5471  000EA4  0012               	return		;funcret
  5472  000EA6                     __end_of_reductionTime:
  5473                           	opt stack 0
  5474  0000                     tosu	equ	0xFFF
  5475                           tosh	equ	0xFFE
  5476                           tosl	equ	0xFFD
  5477                           stkptr	equ	0xFFC
  5478                           pclatu	equ	0xFFB
  5479                           pclath	equ	0xFFA
  5480                           tblptru	equ	0xFF8
  5481                           tblptrh	equ	0xFF7
  5482                           tblptrl	equ	0xFF6
  5483                           tablat	equ	0xFF5
  5484                           prodh	equ	0xFF4
  5485                           prodl	equ	0xFF3
  5486                           intcon	equ	0xFF2
  5487                           postinc0	equ	0xFEE
  5488                           fsr0h	equ	0xFEA
  5489                           fsr0l	equ	0xFE9
  5490                           wreg	equ	0xFE8
  5491                           indf1	equ	0xFE7
  5492                           postdec1	equ	0xFE5
  5493                           fsr1h	equ	0xFE2
  5494                           fsr1l	equ	0xFE1
  5495                           bsr	equ	0xFE0
  5496                           indf2	equ	0xFDF
  5497                           postinc2	equ	0xFDE
  5498                           postdec2	equ	0xFDD
  5499                           fsr2h	equ	0xFDA
  5500                           fsr2l	equ	0xFD9
  5501                           status	equ	0xFD8
  5502                           tosu	equ	0xFFF
  5503                           tosh	equ	0xFFE
  5504                           tosl	equ	0xFFD
  5505                           stkptr	equ	0xFFC
  5506                           pclatu	equ	0xFFB
  5507                           pclath	equ	0xFFA
  5508                           tblptru	equ	0xFF8
  5509                           tblptrh	equ	0xFF7
  5510                           tblptrl	equ	0xFF6
  5511                           tablat	equ	0xFF5
  5512                           prodh	equ	0xFF4
  5513                           prodl	equ	0xFF3
  5514                           intcon	equ	0xFF2
  5515                           postinc0	equ	0xFEE
  5516                           fsr0h	equ	0xFEA
  5517                           fsr0l	equ	0xFE9
  5518                           wreg	equ	0xFE8
  5519                           indf1	equ	0xFE7
  5520                           postdec1	equ	0xFE5
  5521                           fsr1h	equ	0xFE2
  5522                           fsr1l	equ	0xFE1
  5523                           bsr	equ	0xFE0
  5524                           indf2	equ	0xFDF
  5525                           postinc2	equ	0xFDE
  5526                           postdec2	equ	0xFDD
  5527                           fsr2h	equ	0xFDA
  5528                           fsr2l	equ	0xFD9
  5529                           status	equ	0xFD8
  5530                           
  5531                           	psect	text30
  5532  000000                     __ptext30:
  5533                           	opt stack 0
  5534                           tosu	equ	0xFFF
  5535                           tosh	equ	0xFFE
  5536                           tosl	equ	0xFFD
  5537                           stkptr	equ	0xFFC
  5538                           pclatu	equ	0xFFB
  5539                           pclath	equ	0xFFA
  5540                           tblptru	equ	0xFF8
  5541                           tblptrh	equ	0xFF7
  5542                           tblptrl	equ	0xFF6
  5543                           tablat	equ	0xFF5
  5544                           prodh	equ	0xFF4
  5545                           prodl	equ	0xFF3
  5546                           intcon	equ	0xFF2
  5547                           postinc0	equ	0xFEE
  5548                           fsr0h	equ	0xFEA
  5549                           fsr0l	equ	0xFE9
  5550                           wreg	equ	0xFE8
  5551                           indf1	equ	0xFE7
  5552                           postdec1	equ	0xFE5
  5553                           fsr1h	equ	0xFE2
  5554                           fsr1l	equ	0xFE1
  5555                           bsr	equ	0xFE0
  5556                           indf2	equ	0xFDF
  5557                           postinc2	equ	0xFDE
  5558                           postdec2	equ	0xFDD
  5559                           fsr2h	equ	0xFDA
  5560                           fsr2l	equ	0xFD9
  5561                           status	equ	0xFD8
  5562                           
  5563                           	psect	param0
  5564  0000                     tosu	equ	0xFFF
  5565                           tosh	equ	0xFFE
  5566                           tosl	equ	0xFFD
  5567                           stkptr	equ	0xFFC
  5568                           pclatu	equ	0xFFB
  5569                           pclath	equ	0xFFA
  5570                           tblptru	equ	0xFF8
  5571                           tblptrh	equ	0xFF7
  5572                           tblptrl	equ	0xFF6
  5573                           tablat	equ	0xFF5
  5574                           prodh	equ	0xFF4
  5575                           prodl	equ	0xFF3
  5576                           intcon	equ	0xFF2
  5577                           postinc0	equ	0xFEE
  5578                           fsr0h	equ	0xFEA
  5579                           fsr0l	equ	0xFE9
  5580                           wreg	equ	0xFE8
  5581                           indf1	equ	0xFE7
  5582                           postdec1	equ	0xFE5
  5583                           fsr1h	equ	0xFE2
  5584                           fsr1l	equ	0xFE1
  5585                           bsr	equ	0xFE0
  5586                           indf2	equ	0xFDF
  5587                           postinc2	equ	0xFDE
  5588                           postdec2	equ	0xFDD
  5589                           fsr2h	equ	0xFDA
  5590                           fsr2l	equ	0xFD9
  5591                           status	equ	0xFD8
  5592                           
  5593                           	psect	temp
  5594  000044                     btemp:
  5595                           	opt stack 0
  5596  000044                     	ds	1
  5597  0000                     int$flags	set	btemp
  5598                           tosu	equ	0xFFF
  5599                           tosh	equ	0xFFE
  5600                           tosl	equ	0xFFD
  5601                           stkptr	equ	0xFFC
  5602                           pclatu	equ	0xFFB
  5603                           pclath	equ	0xFFA
  5604                           tblptru	equ	0xFF8
  5605                           tblptrh	equ	0xFF7
  5606                           tblptrl	equ	0xFF6
  5607                           tablat	equ	0xFF5
  5608                           prodh	equ	0xFF4
  5609                           prodl	equ	0xFF3
  5610                           intcon	equ	0xFF2
  5611                           postinc0	equ	0xFEE
  5612                           fsr0h	equ	0xFEA
  5613                           fsr0l	equ	0xFE9
  5614                           wreg	equ	0xFE8
  5615                           indf1	equ	0xFE7
  5616                           postdec1	equ	0xFE5
  5617                           fsr1h	equ	0xFE2
  5618                           fsr1l	equ	0xFE1
  5619                           bsr	equ	0xFE0
  5620                           indf2	equ	0xFDF
  5621                           postinc2	equ	0xFDE
  5622                           postdec2	equ	0xFDD
  5623                           fsr2h	equ	0xFDA
  5624                           fsr2l	equ	0xFD9
  5625                           status	equ	0xFD8


Data Sizes:
    Strings     0
    Constant    0
    Data        15
    BSS         345
    Persistent  0
    Stack       0

Auto Spaces:
    Space          Size  Autos    Used
    COMRAM           94     26      67
    BANK0           160     20     108
    BANK1           256      0     231
    BANK2           256      0       0
    BANK3           256      0       0
    BANK4           256      0       0
    BANK5           256      0       0
    BANK6           256      0       0
    BANK7           256      0       0

Pointer List with Targets:

    ReadingMailBox@r	PTR unsigned long  size(2) Largest target is 0
		 -> NULL(NULL[0]), 

    z	PTR volatile unsigned long  size(2) Largest target is 0
		 -> NULL(NULL[0]), 

    y	PTR volatile unsigned long  size(2) Largest target is 0
		 -> NULL(NULL[0]), 


Critical Paths under _main in COMRAM

    None.

Critical Paths under _High_Priority_Interrupt in COMRAM

    None.

Critical Paths under _Low_Priority_Interrupt in COMRAM

    _PWM_activator->_xTaskCreate
    _PWM6->_vTaskDelay
    _PWM5->_vTaskDelay
    _PWM4->_vTaskDelay
    _PWM3->_vTaskDelay
    _PWM2->_vTaskDelay
    _PWM1->_vTaskDelay
    _FunctionE->_vTaskDelay
    _FunctionD->_xTaskCreate
    _vTaskDelay->_OSRun
    _FunctionC->_ReadingMailBox
    _FunctionB->_ReadingMailBox
    _ReadingMailBox->_OSRun
    _FunctionA->_xTaskCreate
    _xTaskCreate->_OSRun
    _vTaskDelete->_OSRun
    _WritingMailBox->_OSRun

Critical Paths under _main in BANK0

    None.

Critical Paths under _High_Priority_Interrupt in BANK0

    _High_Priority_Interrupt->_xInterruptTaskCreate

Critical Paths under _Low_Priority_Interrupt in BANK0

    None.

Critical Paths under _main in BANK1

    None.

Critical Paths under _High_Priority_Interrupt in BANK1

    None.

Critical Paths under _Low_Priority_Interrupt in BANK1

    None.

Critical Paths under _main in BANK2

    None.

Critical Paths under _High_Priority_Interrupt in BANK2

    None.

Critical Paths under _Low_Priority_Interrupt in BANK2

    None.

Critical Paths under _main in BANK3

    None.

Critical Paths under _High_Priority_Interrupt in BANK3

    None.

Critical Paths under _Low_Priority_Interrupt in BANK3

    None.

Critical Paths under _main in BANK4

    None.

Critical Paths under _High_Priority_Interrupt in BANK4

    None.

Critical Paths under _Low_Priority_Interrupt in BANK4

    None.

Critical Paths under _main in BANK5

    None.

Critical Paths under _High_Priority_Interrupt in BANK5

    None.

Critical Paths under _Low_Priority_Interrupt in BANK5

    None.

Critical Paths under _main in BANK6

    None.

Critical Paths under _High_Priority_Interrupt in BANK6

    None.

Critical Paths under _Low_Priority_Interrupt in BANK6

    None.

Critical Paths under _main in BANK7

    None.

Critical Paths under _High_Priority_Interrupt in BANK7

    None.

Critical Paths under _Low_Priority_Interrupt in BANK7

    None.

Call Graph Tables:

 ---------------------------------------------------------------------------------
 (Depth) Function   	        Calls       Base Space   Used Autos Params    Refs
 ---------------------------------------------------------------------------------
 (0) _main                                                 0     0      0       0
                             _OSInit
 ---------------------------------------------------------------------------------
 (1) _OSInit                                               0     0      0       0
 ---------------------------------------------------------------------------------
 Estimated maximum stack depth 1
 ---------------------------------------------------------------------------------
 (Depth) Function   	        Calls       Base Space   Used Autos Params    Refs
 ---------------------------------------------------------------------------------
 (2) _Low_Priority_Interrupt                              17    17      0   13452
                                              9 COMRAM    17    17      0
                          _FunctionA
                          _FunctionB
                          _FunctionC
                          _FunctionD
                          _FunctionE
                               _PWM1
                               _PWM2
                               _PWM3
                               _PWM4
                               _PWM5
                               _PWM6
                      _PWM_activator
                           _PWM_init
 ---------------------------------------------------------------------------------
 (3) _PWM_init                                             0     0      0       0
 ---------------------------------------------------------------------------------
 (3) _PWM_activator                                        0     0      0    1734
                        _vTaskDelete
                        _xTaskCreate
 ---------------------------------------------------------------------------------
 (3) _PWM6                                                 2     2      0     918
                                              3 COMRAM     2     2      0
                         _vTaskDelay
                        _vTaskDelete
 ---------------------------------------------------------------------------------
 (3) _PWM5                                                 2     2      0     918
                                              3 COMRAM     2     2      0
                         _vTaskDelay
                        _vTaskDelete
 ---------------------------------------------------------------------------------
 (3) _PWM4                                                 2     2      0     918
                                              3 COMRAM     2     2      0
                         _vTaskDelay
                        _vTaskDelete
 ---------------------------------------------------------------------------------
 (3) _PWM3                                                 2     2      0     918
                                              3 COMRAM     2     2      0
                         _vTaskDelay
                        _vTaskDelete
 ---------------------------------------------------------------------------------
 (3) _PWM2                                                 2     2      0     918
                                              3 COMRAM     2     2      0
                         _vTaskDelay
                        _vTaskDelete
 ---------------------------------------------------------------------------------
 (3) _PWM1                                                 2     2      0     918
                                              3 COMRAM     2     2      0
                         _vTaskDelay
                        _vTaskDelete
 ---------------------------------------------------------------------------------
 (3) _FunctionE                                            0     0      0     918
                         _vTaskDelay
                        _vTaskDelete
 ---------------------------------------------------------------------------------
 (3) _FunctionD                                            0     0      0    2652
                         _vTaskDelay
                        _vTaskDelete
                        _xTaskCreate
 ---------------------------------------------------------------------------------
 (4) _vTaskDelay                                           2     0      2     918
                                              1 COMRAM     2     0      2
                              _OSRun
 ---------------------------------------------------------------------------------
 (3) _FunctionC                                            0     0      0     258
                     _ReadingMailBox
                        _vTaskDelete
 ---------------------------------------------------------------------------------
 (3) _FunctionB                                            0     0      0     280
                       _DoneWritting
                     _ReadingMailBox
                        _vTaskDelete
 ---------------------------------------------------------------------------------
 (4) _ReadingMailBox                                       8     6      2     258
                                              1 COMRAM     8     6      2
                              _OSRun
                      _waitForBuffer
 ---------------------------------------------------------------------------------
 (4) _DoneWritting                                         2     2      0      22
                                              0 COMRAM     2     2      0
 ---------------------------------------------------------------------------------
 (3) _FunctionA                                            0     0      0    2102
                        _DoneReading
                     _WritingMailBox
             _mailBox_init_conection
                        _vTaskDelete
                        _xTaskCreate
 ---------------------------------------------------------------------------------
 (4) _xTaskCreate                                          6     0      6    1734
                                              1 COMRAM     6     0      6
                              _OSRun
 ---------------------------------------------------------------------------------
 (4) _vTaskDelete                                          0     0      0       0
                              _OSRun
 ---------------------------------------------------------------------------------
 (4) _mailBox_init_conection                               2     1      1     130
                                              0 COMRAM     2     1      1
 ---------------------------------------------------------------------------------
 (4) _WritingMailBox                                       5     4      1     216
                                              1 COMRAM     5     4      1
                              _OSRun
                      _waitForBuffer
 ---------------------------------------------------------------------------------
 (5) _waitForBuffer                                        0     0      0       0
 ---------------------------------------------------------------------------------
 (5) _OSRun                                                1     1      0       0
                                              0 COMRAM     1     1      0
 ---------------------------------------------------------------------------------
 (4) _DoneReading                                          2     2      0      22
                                              0 COMRAM     2     2      0
 ---------------------------------------------------------------------------------
 Estimated maximum stack depth 5
 ---------------------------------------------------------------------------------
 (Depth) Function   	        Calls       Base Space   Used Autos Params    Refs
 ---------------------------------------------------------------------------------
 (6) _High_Priority_Interrupt                             14    14      0     758
                                              6 BANK0     14    14      0
                      _reductionTime
               _saveInterruptedState
               _xInterruptTaskCreate
 ---------------------------------------------------------------------------------
 (7) _xInterruptTaskCreate                                 6     0      6     758
                                              0 BANK0      6     0      6
 ---------------------------------------------------------------------------------
 (7) _saveInterruptedState                                 0     0      0       0
 ---------------------------------------------------------------------------------
 (7) _reductionTime                                        2     2      0       0
                                              0 BANK0      2     2      0
 ---------------------------------------------------------------------------------
 Estimated maximum stack depth 7
 ---------------------------------------------------------------------------------

 Call Graph Graphs:

 _main (ROOT)
   _OSInit

 _Low_Priority_Interrupt (ROOT)
   _FunctionA
     _DoneReading
     _WritingMailBox
       _OSRun
       _waitForBuffer
     _mailBox_init_conection
     _vTaskDelete
       _OSRun
     _xTaskCreate
       _OSRun
   _FunctionB
     _DoneWritting
     _ReadingMailBox
       _OSRun
       _waitForBuffer
     _vTaskDelete
       _OSRun
   _FunctionC
     _ReadingMailBox
       _OSRun
       _waitForBuffer
     _vTaskDelete
       _OSRun
   _FunctionD
     _vTaskDelay
       _OSRun
     _vTaskDelete
       _OSRun
     _xTaskCreate
       _OSRun
   _FunctionE
     _vTaskDelay
       _OSRun
     _vTaskDelete
       _OSRun
   _PWM1
     _vTaskDelay
       _OSRun
     _vTaskDelete
       _OSRun
   _PWM2
     _vTaskDelay
       _OSRun
     _vTaskDelete
       _OSRun
   _PWM3
     _vTaskDelay
       _OSRun
     _vTaskDelete
       _OSRun
   _PWM4
     _vTaskDelay
       _OSRun
     _vTaskDelete
       _OSRun
   _PWM5
     _vTaskDelay
       _OSRun
     _vTaskDelete
       _OSRun
   _PWM6
     _vTaskDelay
       _OSRun
     _vTaskDelete
       _OSRun
   _PWM_activator
     _vTaskDelete
       _OSRun
     _xTaskCreate
       _OSRun
   _PWM_init

 _High_Priority_Interrupt (ROOT)
   _reductionTime
   _saveInterruptedState
   _xInterruptTaskCreate

 Address spaces:
Name               Size   Autos  Total    Cost      Usage
BIGRAM             7FF      0       0      21        0.0%
EEDATA             100      0       0       0        0.0%
BITBANK7           100      0       0      18        0.0%
BANK7              100      0       0      19        0.0%
BITBANK6           100      0       0      16        0.0%
BANK6              100      0       0      17        0.0%
BITBANK5           100      0       0      14        0.0%
BANK5              100      0       0      15        0.0%
BITBANK4           100      0       0      12        0.0%
BANK4              100      0       0      13        0.0%
BITBANK3           100      0       0      10        0.0%
BANK3              100      0       0      11        0.0%
BITBANK2           100      0       0       8        0.0%
BANK2              100      0       0       9        0.0%
BITBANK1           100      0       0       6        0.0%
BANK1              100      0      E7       7       90.2%
BITBANK0            A0      0       0       4        0.0%
BANK0               A0     14      6C       5       67.5%
BITCOMRAM           5E      0       0       0        0.0%
COMRAM              5E     1A      43       1       71.3%
BITSFR               0      0       0      40        0.0%
SFR                  0      0       0      40        0.0%
STACK                0      0       0       2        0.0%
NULL                 0      0       0       0        0.0%
ABS                  0      0     196      20        0.0%
DATA                 0      0     196       3        0.0%
CODE                 0      0       0       0        0.0%


Microchip Technology PIC18 Macro Assembler V1.35 build -356382666 
Symbol Table                                                                                   Sun Mar 13 10:59:01 2016

                               _i 000A                                 _x 0001  
                               _y 0005                                 _z 0007  
         Structure@s_STATUSBackup 0036                       __CFG_CP0$ON 000000  
                     __CFG_CP1$ON 000000                       __CFG_CP2$ON 000000  
                     __CFG_CP3$ON 000000                       __CFG_CPB$ON 000000  
                     __CFG_CPD$ON 000000                                bsr 000FE0  
                     __CFG_BORV$3 000000                               _GIE 007F97  
                             _BSR 000FE0                               _TOS 000FFD  
                    __CFG_BOR$OFF 000000                               prod 000FF3  
                             wreg 000FE8                      __CFG_LVP$OFF 000000  
                    __CFG_WDT$OFF 000000                              l1703 0D30  
                            l1713 0DC8                              l1707 0D38  
                            _LATB 000F8A                              _PEIE 007F96  
                            i1l92 14F8                              i1l98 14CA  
                            i2l86 11D2                              _PWM1 14F8  
                            _PWM2 14CA                              _PWM3 149C  
                            _PWM4 146E                              _PWM5 1440  
                            _PWM6 1412                              _TOSH 000FFE  
                            _TOSL 000FFD                              _WREG 000FE8  
                            _TOSU 000FFF                      __CFG_PWRT$ON 000000  
                    ?_vTaskDelete 001B                      __CFG_WRT0$ON 000000  
                    __CFG_WRT1$ON 000000                      __CFG_WRT2$ON 000000  
                    __CFG_WRT3$ON 000000                     __CFG_EBTR0$ON 000000  
                   __CFG_EBTR1$ON 000000                     __CFG_EBTR2$ON 000000  
                   __CFG_EBTR3$ON 000000                      __CFG_WRTB$ON 000000  
                    __CFG_WRTC$ON 000000                   _schedulerStatus 0043  
                    __CFG_WRTD$ON 000000                              _i_dr 000C  
                            _i_dw 000D                     __CFG_EBTRB$ON 000000  
                            _cont 0009                              _main 1578  
                            fsr0h 000FEA                              fsr1h 000FE2  
                            fsr0l 000FE9                              fsr2h 000FDA  
                            indf1 000FE7                              fsr1l 000FE1  
                            indf2 000FDF                              fsr2l 000FD9  
                            btemp 0044                              pclat 000FFA  
                            prodh 000FF4                              prodl 000FF3  
                            start 00DA                     __CFG_IESO$OFF 000000  
             __end_of_DoneReading 1164                     __CFG_MCLRE$ON 000000  
           xTaskCreate@pvTaskCode 001C                      ___param_bank 000000  
                           ?_PWM1 001B                             ?_PWM2 001B  
                           ?_PWM3 001B                             ?_PWM4 001B  
                           ?_PWM5 001B                             ?_PWM6 001B  
                   __CFG_PLLDIV$1 000000                    __CFG_CCP2MX$ON 000000  
                    ?_xTaskCreate 001C                             ?_main 001B  
__size_of_High_Priority_Interrupt 1206                             _T0CON 000FD5  
                           i1l110 146E                             i1l104 149C  
                           i1l122 1412                             i1l116 1440  
                           i1l297 080E                             i2l269 0E8C  
          __size_of_PWM_activator 00B0                     __CFG_USBDIV$1 000000  
                           _TRISB 000F93                             _OSRun 0774  
                  __CFG_FCMEN$OFF 000000             __end_of_reductionTime 0EA6  
                           _i_mic 000E                             _i_rmb 000F  
                           _i_wmb 0010                             _index 0011  
                           tablat 000FF5                  __end_of_PWM_init 1590  
                           status 000FD8      mailBox_init_conection@reader 001C  
                    __end_of_PWM1 1526                      __end_of_PWM2 14F8  
                    __end_of_PWM3 14CA                      __end_of_PWM4 149C  
                    __end_of_PWM5 146E                      __end_of_PWM6 1440  
                 __initialization 135A                      __end_of_main 1586  
    mailBox_init_conection@writer 001B                            ??_PWM1 001E  
                          ??_PWM2 001E                            ??_PWM3 001E  
                          ??_PWM4 001E                            ??_PWM5 001E  
                          ??_PWM6 001E                            ??_main 0035  
                   __activetblptr 000000              __end_of_DoneWritting 10BA  
                  _actualPosition 0038                            ?_OSRun 001B  
         ?_mailBox_init_conection 001B                       _DoneReading 10BA  
                          _INT0IE 007F94                            _INT0IF 007F91  
                          i1l1521 0CC0                            i1l1505 0C70  
                          i1l1433 00E6                            i1l1531 0468  
                          i1l1373 0786                            i1l1517 0CBC  
                          i1l1509 0C78                            i1l1437 00EE  
                          i1l1391 0832                            i1l1527 0460  
                          i1l1455 01F4                            i1l1377 078E  
                          i1l1553 055A                            i1l1571 10C6  
                          i1l1387 082E                            i1l1483 101C  
                          i1l1475 0450                            i1l1581 1108  
                          i1l1549 0556                            i1l1493 105E  
                          i1l1575 10CE                            i1l1487 1024  
                          i1l1585 110C                            i1l1497 1062  
                          i2l1807 0E90                            i2l1823 11C6  
                          i2l1791 0DEE                            i2l1795 0DF6  
                          _INTCON 000FF2                            _OSCCON 000FD3  
                          _TMR0IE 007F95                            _TMR0IF 007F92  
                          _TMR0ON 007EAF                            _STATUS 000FD8  
                          _STKPTR 000FFC                            _OSInit 0D2A  
                   _PWM_activator 0F60                __size_of_FunctionA 0068  
              __size_of_FunctionB 0062                __size_of_FunctionC 0034  
              __size_of_FunctionD 0036                __size_of_FunctionE 001C  
            Structure@s_BSRBackup 0035                    __CFG_XINST$OFF 000000  
    __end_of_xInterruptTaskCreate 0B8E           __size_of_ReadingMailBox 0376  
                          clear_0 1360                            clear_1 136C  
                          clear_2 1378                      __pdataCOMRAM 0035  
                  _s_STATUSBackup 0041                            tblptrh 000FF7  
                          tblptrl 000FF6                            tblptru 000FF8  
  __end_of_mailBox_init_conection 0D2A             __end_of_waitForBuffer 1290  
          xInterruptTaskCreate@Id 00BC                        __accesstop 0060  
         __end_of__initialization 139E                   __CFG_PBADEN$OFF 000000  
                  ?_PWM_activator 001B              __size_of_vTaskDelete 0026  
                   ___rparam_used 000000                     __end_of_OSRun 0920  
                  __pcstackCOMRAM 001B      __end_of_saveInterruptedState 0C64  
         _High_Priority_Interrupt 0008                         ?_PWM_init 001B  
            __size_of_xTaskCreate 0156                           ??_OSRun 001B  
               __end_of_FunctionA 12F8                 __end_of_FunctionB 135A  
               __end_of_FunctionC 1412                 __end_of_FunctionD 13DE  
               __end_of_FunctionE 1568           __size_of_WritingMailBox 0320  
                      __pbssBANK0 0060                        __pbssBANK1 0100  
                         ?_OSInit 001B                      _s_WREGBackup 0042  
           __size_of_DoneWritting 00AA          ??_Low_Priority_Interrupt 0024  
                      ??_PWM_init 001B              _xInterruptTaskCreate 0A76  
                 ??_PWM_activator 0022                   __CFG_VREGEN$OFF 000000  
                 __size_of_OSInit 00C0                        _vTaskDelay 0EA6  
                    _DoneWritting 1010                 vTaskDelay@delayms 001C  
                    _MailBoxArray 0060                           __Hparam 0000  
                         __Lparam 0000                           _iAmDone 000B  
       ??_High_Priority_Interrupt 00BE                    _ReadingMailBox 00DE  
                 __CFG_STVREN$OFF 000000                           __pcinit 135A  
                      _dutyCycle1 0039                        _dutyCycle2 003A  
                      _dutyCycle3 003B                        _dutyCycle4 003C  
                      _dutyCycle5 003D                        _dutyCycle6 003E  
                         __ramtop 0800                           __ptext0 1578  
                         __ptext1 0D2A                           __ptext3 1586  
                         __ptext4 0F60                           __ptext5 1412  
                         __ptext6 1440                           __ptext7 146E  
                         __ptext8 149C                           __ptext9 14CA  
                       _T0CONbits 000FD5                DoneReading@writter 001C  
           ?_xInterruptTaskCreate 00B8                    __pintcode_body 1164  
            _saveInterruptedState 0B8E              end_of_initialization 139E  
                    ?_DoneReading 001B                           int_func 1164  
          __end_of_ReadingMailBox 0454                           postdec1 000FE5  
                         postdec2 000FDD                           postinc0 000FEE  
                         postinc2 000FDE            __size_of_reductionTime 00BC  
 __size_of_Low_Priority_Interrupt 00C2                  xTaskCreate@Prior 0021  
            WritingMailBox@reader 001C             ?_saveInterruptedState 001B  
                  _WritingMailBox 0454                     _schedulerAdd1 0017  
                   _schedulerAdd2 0018                     _schedulerAdd3 0019  
       xInterruptTaskCreate@Prior 00BD             Structure@s_WREGBackup 0037  
                     ?_vTaskDelay 001C                    __end_of_OSInit 0DEA  
                 ?_ReadingMailBox 001C                     __pidataCOMRAM 1568  
  xInterruptTaskCreate@pvTaskCode 00B8            ??_xInterruptTaskCreate 0035  
             start_initialization 135A            __end_of_WritingMailBox 0774  
               __size_of_PWM_init 000A                     _reductionTime 0DEA  
                       _FunctionA 1290                         _FunctionB 12F8  
                       _FunctionC 13DE                         _FunctionD 13A8  
                       _FunctionE 154C                     ??_vTaskDelete 001C  
                        ??_OSInit 0035            _Low_Priority_Interrupt 0018  
                       _TaskArray 0100                       _s_BSRBackup 0040  
          __size_of_waitForBuffer 0082                  __CFG_LPT1OSC$OFF 000000  
                   ??_xTaskCreate 0022               __size_of_vTaskDelay 00BA  
                     __pbssCOMRAM 0001                     __pcstackBANK0 00B8  
                 ?_WritingMailBox 001C            ??_saveInterruptedState 0035  
                  ?_reductionTime 001B                        ?_FunctionA 001B  
                      ?_FunctionB 001B                        ?_FunctionC 001B  
                      ?_FunctionD 001B                        ?_FunctionE 001B  
            __size_of_DoneReading 00AA               __end_of_vTaskDelete 154C  
                       __pintcode 0008             ReadingMailBox@writter 0023  
                     __pintcodelo 0018          ??_mailBox_init_conection 001C  
                  __size_of_OSRun 01AC                         _index_mic 0014  
                       _index_rmb 0015                         _index_wmb 0016  
             __end_of_xTaskCreate 0A76                     _waitForBuffer 120E  
                 ReadingMailBox@r 001C                          _LATBbits 000F8A  
           __end_of_PWM_activator 1010                  __CFG_WDTPS$32768 000000  
                        _PWM_init 1586                   ??_reductionTime 00B8  
                  ?_waitForBuffer 001B                       ??_FunctionA 0022  
                     ??_FunctionB 0024                       ??_FunctionC 0024  
                     ??_FunctionD 0022                       ??_FunctionE 001E  
                       copy_data0 1392                       _vTaskDelete 1526  
                ??_ReadingMailBox 001E                      ??_vTaskDelay 001E  
                        __Hparam0 0000          ?_High_Priority_Interrupt 001B  
                        __Lparam0 0000                     xTaskCreate@Id 0020  
              DoneWritting@reader 001C                       _xTaskCreate 0920  
           __CFG_FOSC$INTOSCIO_EC 000000   __size_of_mailBox_init_conection 00C6  
              __end_of_vTaskDelay 0F60                      _taskPosition 001A  
                        __ptext10 14F8                          __ptext11 154C  
                        __ptext20 1526                          __ptext12 13A8  
                        __ptext21 0C64                          __ptext13 0EA6  
                        __ptext30 0000                          __ptext22 0454  
                        __ptext14 13DE                          __ptext23 120E  
                        __ptext15 12F8                          __ptext24 0774  
                        __ptext16 00DE                          __ptext25 10BA  
                        __ptext17 1010                          __ptext18 1290  
                        __ptext27 0A76                          __ptext19 0920  
                        __ptext28 0B8E                          __ptext29 0DEA  
         ?_Low_Priority_Interrupt 001B                     __size_of_PWM1 002E  
                   __size_of_PWM2 002E                     __size_of_PWM3 002E  
                   __size_of_PWM4 002E                     __size_of_PWM5 002E  
                   __size_of_PWM6 002E                          _index_dr 0012  
                        _index_dw 0013                          _minPrior 003F  
                   __size_of_main 000E                          int$flags 0044  
              WritingMailBox@data 0020                  ??_WritingMailBox 001D  
           __CFG_CPUDIV$OSC4_PLL6 000000                   ??_waitForBuffer 001B  
   __size_of_xInterruptTaskCreate 0118    __end_of_Low_Priority_Interrupt 00DA  
                        intlevel1 0000                          intlevel2 0000  
 __end_of_High_Priority_Interrupt 120E            _mailBox_init_conection 0C64  
                   ?_DoneWritting 001B     __size_of_saveInterruptedState 00D6  
                   ??_DoneReading 001B                    ??_DoneWritting 001B  
